******************************************************************************
                  TI ARM Linker Unix v5.1.6                    
******************************************************************************
>> Linked Fri Oct  9 10:48:21 2015

OUTPUT FILE NAME:   <roveDeviceTemplate.out>
ENTRY POINT SYMBOL: "_c_int00"  address: 00011175


MEMORY CONFIGURATION

         name            origin    length      used     unused   attr    fill
----------------------  --------  ---------  --------  --------  ----  --------
  FLASH                 00000000   00100000  0001830c  000e7cf4  R  X
  SRAM                  20000000   00040000  0001101c  0002efe4  RW X


SEGMENT ALLOCATION MAP

run origin  load origin   length   init length attrs members
----------  ----------- ---------- ----------- ----- -------
00000000    00000000    00018310   00018310    r-x
  00000000    00000000    0000003c   0000003c    r-- .resetVecs
  0000003c    0000003c    00015572   00015572    r-x .text
  000155b0    000155b0    000026ce   000026ce    r-- .const
  00017c80    00017c80    00000690   00000690    r-- .cinit
20000000    20000000    00000360   00000000    rw-
  20000000    20000000    00000360   00000000    rw- .vecs
20000380    20000380    00010cbc   00000000    rw-
  20000380    20000380    0000f9dc   00000000    rw- .bss
  2000fd5c    2000fd5c    00000ae0   00000000    rw- .data
  2001083c    2001083c    00000800   00000000    rw- .stack


SECTION ALLOCATION MAP

 output                                  attributes/
section   page    origin      length       input sections
--------  ----  ----------  ----------   ----------------
.bootVecs 
*          0    00000000    00000008     DSECT
                  00000000    00000008     boot.aem4f : boot.oem4f (.bootVecs)

.resetVecs 
*          0    00000000    0000003c     
                  00000000    0000003c     tivaRTSC_JS_pem4f.oem4f (.resetVecs)

xdc.meta   0    00000000    00000108     COPY SECTION
                  00000000    00000108     tivaRTSC_JS_pem4f.oem4f (xdc.meta)

.init_array 
*          0    00000000    00000000     UNINITIALIZED

.text      0    0000003c    00015572     
                  0000003c    00000ec0     rtsv7M4_T_le_v4SPD16_eabi.lib : _printfi.obj (.text)
                  00000efc    00000c70     stk.aem4f : tcpin.oem4f (.text:TcpInput)
                  00001b6c    000008a0               : tcpout.oem4f (.text:TcpOutput)
                  0000240c    00000424     sysbios.aem4f : BIOS.obj (.text:ti_sysbios_family_arm_m3_Hwi_excDumpRegs__I)
                  00002830    00000408     stk.aem4f : ipout.oem4f (.text:IPTxPacket)
                  00002c38    00000384               : ipin.oem4f (.text:IPRxPacket)
                  00002fbc    0000033c     ti.targets.arm.rtsarm.aem4f : System.oem4f (.text:xdc_runtime_System_doPrint__I)
                  000032f8    00000310     rtsv7M4_T_le_v4SPD16_eabi.lib : lowlev.obj (.text)
                  00003608    00000304     sysbios.aem4f : BIOS.obj (.text:ti_sysbios_knl_Semaphore_pend__E)
                  0000390c    000002d4     rtsv7M4_T_le_v4SPD16_eabi.lib : trgdrv.obj (.text)
                  00003be0    000002c0     sysbios.aem4f : BIOS.obj (.text:ti_sysbios_knl_Task_Instance_finalize__E)
                  00003ea0    00000274     stk.aem4f : sock.oem4f (.text:SockSet)
                  00004114    0000026d     roveTCPSocket.obj (.text:roveHorizon_Recv)
                  00004381    00000001     --HOLE-- [fill = 0]
                  00004382    00000002     hal_userled_stub.aem4f : llled.oem4f (.text:LED_TOGGLE)
                  00004384    0000024c     stk.aem4f : ipfrag.oem4f (.text:IPReasm)
                  000045d0    0000024c     sysbios.aem4f : BIOS.obj (.text:ti_sysbios_family_arm_lm4_Timer_start__E)
                  0000481c    00000248                   : BIOS.obj (.text:ti_sysbios_heaps_HeapMem_free__E)
                  00004a64    0000023c     stk.aem4f : icmpin.oem4f (.text:ICMPInput)
                  00004ca0    00000234     sysbios.aem4f : BIOS.obj (.text:ti_sysbios_heaps_HeapMem_alloc__E)
                  00004ed4    00000224     stk.aem4f : udp.oem4f (.text:UdpInput)
                  000050f8    00000208     sysbios.aem4f : BIOS.obj (.text:ti_sysbios_knl_Task_sleep__E)
                  00005300    00000204     Boot.aem4f : Boot_sysctl.oem4f (.text:ti_catalog_arm_cortexm4_tiva_ce_Boot_sysCtlClockFreqSetI__I)
                  00005504    000001f8     stk.aem4f : sock.oem4f (.text:SockRecv)
                  000056fc    000001f8     sysbios.aem4f : BIOS.obj (.text:ti_sysbios_family_arm_m3_Hwi_excHandlerMax__I)
                  000058f4    000001f4     rtsv7M4_T_le_v4SPD16_eabi.lib : ull_div_t2.obj (.text)
                  00005ae8    000001e4     sysbios.aem4f : BIOS.obj (.text:ti_sysbios_knl_Task_Instance_init__E)
                  00005ccc    000001c0     rtsv7M4_T_le_v4SPD16_eabi.lib : fopen.obj (.text)
                  00005e8c    000001b8     drivers_tivaware.aem4f : EMACSnow.oem4f (.text:EMACSnow_NIMUInit)
                  00006044    000001b6     rtsv7M4_T_le_v4SPD16_eabi.lib : fd_add_t2.obj (.text)
                  000061fa    00000002     stk.aem4f : nat.oem4f (.text:NatMsg)
                  000061fc    000001b4               : lliout.oem4f (.text:LLITxIpPacket)
                  000063b0    000001b0               : lliin.oem4f (.text:LLIRxPacket)
                  00006560    00000198     os.aem4f : mem.oem4f (.text:mmAlloc)
                  000066f8    00000194     stk.aem4f : sock.oem4f (.text:SockNew)
                  0000688c    00000190               : igmp.oem4f (.text:IGMPInput)
                  00006a1c    00000184     sysbios.aem4f : BIOS.obj (.text:ti_sysbios_knl_Task_setPri__E)
                  00006ba0    00000170     drivers_tivaware.aem4f : PWMTiva.oem4f (.text:PWMTiva_open)
                  00006d10    00000170     stk.aem4f : rtc.oem4f (.text:RTCReport)
                  00006e80    00000168     sysbios.aem4f : BIOS.obj (.text:ti_sysbios_family_arm_m3_Hwi_excBusFault__I)
                  00006fe8    00000166     stk.aem4f : sb.oem4f (.text:SBRead)
                  0000714e    00000002     os.aem4f : task.oem4f (.text:_TaskInit)
                  00007150    00000164     stk.aem4f : sock.oem4f (.text:SockConnect)
                  000072b4    00000154     netctrl_min_ipv4.aem4f : netctrl.oem4f (.text:NC_NetStart)
                  00007408    00000154     roveBIOS_Init.obj (.text:main)
                  0000755c    00000154     sysbios.aem4f : BIOS.obj (.text:ti_sysbios_family_arm_m3_Hwi_excUsageFault__I)
                  000076b0    00000144     stk.aem4f : bind.oem4f (.text:BindNew)
                  000077f4    00000140     nettool_ipv4.aem4f : config.oem4f (.text:CfgAddEntry)
                  00007934    00000140                        : dhcpmain.oem4f (.text:DHCPOpen)
                  00007a74    00000140     EK_TM4C1294XL.obj (.text:EK_TM4C1294XL_initUART)
                  00007bb4    00000140     stk.aem4f : tcp.oem4f (.text:TcpTimeoutCheck)
                  00007cf4    00000140     drivers_tivaware.aem4f : UARTTiva.oem4f (.text:UARTTiva_open)
                  00007e34    00000140     sysbios.aem4f : BIOS.obj (.text:ti_sysbios_family_arm_m3_Hwi_excMemFault__I)
                  00007f74    0000013c     stk.aem4f : sock.oem4f (.text:SockSend)
                  000080b0    00000138     sysbios.aem4f : BIOS.obj (.text:ti_sysbios_family_arm_m3_Hwi_dispatchC__I)
                  000081e8    00000138                   : BIOS.obj (.text:ti_sysbios_heaps_HeapMem_Instance_init__E)
                  00008320    00000138                   : BIOS.obj (.text:ti_sysbios_knl_Semaphore_post__E)
                  00008458    00000136     rtsv7M4_T_le_v4SPD16_eabi.lib : fd_div_t2.obj (.text)
                  0000858e    00000002     os.aem4f : task.oem4f (.text:_TaskShutdown)
                  00008590    00000134     rtsv7M4_T_le_v4SPD16_eabi.lib : fputs.obj (.text)
                  000086c4    00000130     driverlib.lib : gpio.obj (.text:GPIOPadConfigSet)
                  000087f4    00000130     stk.aem4f : icmp.oem4f (.text:ICMPGenPacket)
                  00008924    0000012c     EK_TM4C1294XL.obj (.text:EK_TM4C1294XL_initEMAC)
                  00008a50    0000012c     sysbios.aem4f : BIOS.obj (.text:ti_sysbios_knl_Clock_workFunc__E)
                  00008b7c    00000128     stk.aem4f : udp.oem4f (.text:UdpOutput)
                  00008ca4    00000128     sysbios.aem4f : BIOS.obj (.text:ti_sysbios_knl_Task_exit__E)
                  00008dcc    00000124     stk.aem4f : sockpcb.oem4f (.text:SockPcbResolve)
                  00008ef0    00000124     tivaRTSC_JS_pem4f.oem4f (.text:ti_ndk_config_Global_stackThread)
                  00009014    00000120     sysbios.aem4f : BIOS.obj (.text:ti_sysbios_knl_Swi_run__I)
                  00009134    00000120     ti.targets.arm.rtsarm.aem4f : Error.oem4f (.text:xdc_runtime_Error_policyDefault__E)
                  00009254    0000011c     sysbios.aem4f : BIOS.obj (.text:ti_sysbios_knl_Clock_Instance_init__E)
                  00009370    0000011b     roveTCPSocket.obj (.text:roveTCP_Connect)
                  0000948b    00000001     --HOLE-- [fill = 0]
                  0000948c    00000118     stk.aem4f : sockint.oem4f (.text:SockNotify)
                  000095a4    00000118               : tcpout.oem4f (.text:TcpGenPacket)
                  000096bc    00000117     roveTCPSocket.obj (.text:roveCatch_NdkErrors)
                  000097d3    00000001     --HOLE-- [fill = 0]
                  000097d4    00000110     stk.aem4f : nimu.oem4f (.text:NIMUIoctl)
                  000098e4    00000110               : node.oem4f (.text:NodeTreeFree)
                  000099f4    00000110               : raw.oem4f (.text:RawInput)
                  00009b04    0000010c               : igmp.oem4f (.text:IGMPSendReply)
                  00009c10    0000010c               : route.oem4f (.text:RtCreate)
                  00009d1c    0000010c               : rtable.oem4f (.text:RtFind)
                  00009e28    00000104     os.aem4f : task.oem4f (.text:llEnter)
                  00009f2c    00000104     sysbios.aem4f : BIOS.obj (.text:ti_sysbios_knl_Task_schedule__I)
                  0000a030    00000104     ti.targets.arm.rtsarm.aem4f : Core-mem.oem4f (.text:xdc_runtime_Core_createObject__I)
                  0000a134    00000104     tivaRTSC_JS_pem4f.oem4f (.text:xdc_runtime_System_printfExtend__I)
                  0000a238    00000102     nettool_ipv4.aem4f : dhcppkt.oem4f (.text:dhcpPacketProcess)
                  0000a33a    00000002     hal_ser_stub.aem4f : llserstb.oem4f (.text:_llSerialServiceCheck)
                  0000a33c    00000100     netctrl_min_ipv4.aem4f : netctrl.oem4f (.text:NetScheduler)
                  0000a43c    00000100     nettool_ipv4.aem4f : inetaddr.oem4f (.text:inet_aton)
                  0000a53c    000000fe     stk.aem4f : pipe.oem4f (.text:PipeRecv)
                  0000a63a    000000fc     rtsv7M4_T_le_v4SPD16_eabi.lib : fd_mul_t2.obj (.text)
                  0000a736    00000002     hal_ser_stub.aem4f : llserstb.oem4f (.text:_llSerialShutdown)
                  0000a738    000000fc     ti.targets.arm.rtsarm.aem4f : Startup.oem4f (.text:xdc_runtime_Startup_startMods__I)
                  0000a834    000000fa     drivers_tivaware.aem4f : PWMTiva.oem4f (.text:PWMTiva_setDuty)
                  0000a92e    00000002     hal_userled_stub.aem4f : llled.oem4f (.text:_llUserLedInit)
                  0000a930    000000f8     drivers_tivaware.aem4f : EMACSnow.oem4f (.text:EMACSnow_emacStart)
                  0000aa28    000000f4     os.aem4f : task.oem4f (.text:TaskGetEnv)
                  0000ab1c    000000f4     sysbios.aem4f : m3_Hwi_asm.obj (.text:ti_sysbios_family_arm_m3_Hwi_dispatch__I)
                  0000ac10    000000f4                   : BIOS.obj (.text:ti_sysbios_knl_Task_startCore__E)
                  0000ad04    000000f0     stk.aem4f : lliout.oem4f (.text:LLIGenArpPacket)
                  0000adf4    000000f0     sysbios.aem4f : BIOS.obj (.text:ti_sysbios_knl_Task_postInit__I)
                  0000aee4    000000ee     stk.aem4f : sock.oem4f (.text:SockClose)
                  0000afd2    00000002     hal_userled_stub.aem4f : llled.oem4f (.text:_llUserLedShutdown)
                  0000afd4    000000ea     roveDeviceTemplate_Thread.obj (.text:roveDeviceTemplateThread)
                  0000b0be    00000002     hal_ser_stub.aem4f : llserstb.oem4f (.text:llSerialService)
                  0000b0c0    000000e8     os.aem4f : task.oem4f (.text:TaskSetEnv)
                  0000b1a8    000000e0     stk.aem4f : tcptime.oem4f (.text:TcpTimeoutRexmt)
                  0000b288    000000dc               : sb.oem4f (.text:SBWrite)
                  0000b364    000000dc     nettool_ipv4.aem4f : dhcpsock.oem4f (.text:dhcpSocketOpen)
                  0000b440    000000dc     rtsv7M4_T_le_v4SPD16_eabi.lib : setvbuf.obj (.text)
                  0000b51c    000000dc     tivaRTSC_JS_pem4f.oem4f (.text:ti_ndk_config_ip_init)
                  0000b5f8    000000da     nettool_ipv4.aem4f : dhcpsm.oem4f (.text:dhcpState)
                  0000b6d2    00000002     tivaRTSC_JS_pem4f.oem4f (.text:ti_ndk_config_Global_NetworkClose)
                  0000b6d4    000000d8     stk.aem4f : node.oem4f (.text:NodeAdd)
                  0000b7ac    000000d5               : nimu.oem4f (.text:NIMUReceivePacket)
                  0000b881    00000001     --HOLE-- [fill = 0]
                  0000b882    00000002     tivaRTSC_JS_pem4f.oem4f (.text:ti_ndk_config_Global_NetworkOpen)
                  0000b884    000000d4     drivers_tivaware.aem4f : EMACSnow.oem4f (.text:EMACSnow_handleRx)
                  0000b958    000000d4     stk.aem4f : sockpcb.oem4f (.text:SockPcbBind)
                  0000ba2c    000000d2               : tcpprot.oem4f (.text:TcpPrSetOption)
                  0000bafe    00000002     tivaRTSC_JS_pem4f.oem4f (.text:ti_sysbios_BIOS_nullFunc__I)
                  0000bb00    000000d0     sysbios.aem4f : BIOS.obj (.text:ti_sysbios_knl_Swi_Instance_init__E)
                  0000bbd0    000000ce     nettool_ipv4.aem4f : dhcpsm.oem4f (.text:dhcpIPAdd)
                  0000bc9e    00000002     sysbios.aem4f : BIOS.obj (.text:ti_sysbios_gates_GateHwi_Instance_init__E)
                  0000bca0    000000cc     stk.aem4f : icmp.oem4f (.text:ICMPSendRtAdv)
                  0000bd6c    000000cc     nettool_ipv4.aem4f : dhcpbild.oem4f (.text:dhcpBuildHeader)
                  0000be38    000000cc     ti.targets.arm.rtsarm.aem4f : Core-smem.oem4f (.text:xdc_runtime_Core_constructObject__I)
                  0000bf04    000000ca     nettool_ipv4.aem4f : dhcppkt.oem4f (.text:dhcpVerifyMessage)
                  0000bfce    00000002     tivaRTSC_JS_pem4f.oem4f (.text:xdc_runtime_Startup_reset__I)
                  0000bfd0    000000c8     stk.aem4f : rawethsock.oem4f (.text:RawEthSockNew)
                  0000c098    000000c4     drivers_tivaware.aem4f : EMACSnow.oem4f (.text:EMACSnow_InitDMADescriptors)
                  0000c15c    000000c4     stk.aem4f : igmp.oem4f (.text:IGMPJoinHostGroup)
                  0000c220    000000c4     netctrl_min_ipv4.aem4f : netsrv.oem4f (.text:SPIpNet)
                  0000c2e4    000000c4     sysbios.aem4f : BIOS.obj (.text:ti_sysbios_family_arm_m3_Hwi_Module_startup__E)
                  0000c3a8    000000c0     nettool_ipv4.aem4f : dhcpsm.oem4f (.text:StateBound)
                  0000c468    000000c0     rtsv7M4_T_le_v4SPD16_eabi.lib : fflush.obj (.text)
                  0000c528    000000bc     stk.aem4f : sockpcb.oem4f (.text:SockPcbFind)
                  0000c5e4    000000bc               : vlan.oem4f (.text:VLANDeinit)
                  0000c6a0    000000bc     sysbios.aem4f : BIOS.obj (.text:ti_sysbios_knl_Task_unblockI__E)
                  0000c75c    000000b8     EK_TM4C1294XL.obj (.text:EK_TM4C1294XL_initGeneral)
                  0000c814    000000b8     stk.aem4f : icmpin.oem4f (.text:ICMPRevSrcRoute)
                  0000c8cc    000000b8               : lli.oem4f (.text:_LLITimeoutCheck)
                  0000c984    000000b4               : tcptime.oem4f (.text:TcpTimeoutKeep)
                  0000ca38    000000b4     sysbios.aem4f : BIOS.obj (.text:ti_sysbios_family_arm_m3_Hwi_excHardFault__I)
                  0000caec    000000b4                   : BIOS.obj (.text:ti_sysbios_gates_GateMutex_enter__E)
                  0000cba0    000000b4                   : BIOS.obj (.text:ti_sysbios_knl_Task_checkStacks__E)
                  0000cc54    000000b0     stk.aem4f : rawethsock.oem4f (.text:RawEthSockSet)
                  0000cd04    000000b0               : sockint.oem4f (.text:SockCreatePacket)
                  0000cdb4    000000b0     sysbios.aem4f : BIOS.obj (.text:ti_sysbios_family_arm_m3_Hwi_excDebugMon__I)
                  0000ce64    000000ac     stk.aem4f : rtable.oem4f (.text:RtTimeoutCheck)
                  0000cf10    000000ac     rtsv7M4_T_le_v4SPD16_eabi.lib : _io_perm.obj (.text)
                  0000cfbc    000000ac     sysbios.aem4f : BIOS.obj (.text:ti_sysbios_family_arm_lm4_Timer_enableTiva__I)
                  0000d068    000000a8                   : BIOS.obj (.text:ti_sysbios_family_arm_lm4_Timer_enableTimers__I)
                  0000d110    000000a8                   : BIOS.obj (.text:ti_sysbios_knl_Swi_post__E)
                  0000d1b8    000000a8                   : BIOS.obj (.text:ti_sysbios_knl_Task_blockI__E)
                  0000d260    000000a0     auto_init.aem4f : auto_init.oem4f (.text)
                  0000d300    000000a0     sysbios.aem4f : BIOS.obj (.text:ti_sysbios_family_arm_m3_Hwi_Instance_init__E)
                  0000d3a0    0000009c     stk.aem4f : exec.oem4f (.text:ExecOpen)
                  0000d43c    0000009c     netctrl_min_ipv4.aem4f : netsrv.oem4f (.text:ServiceScan)
                  0000d4d8    0000009c     rtsv7M4_T_le_v4SPD16_eabi.lib : fputc.obj (.text)
                  0000d574    0000009c                                   : memcpy_t2.obj (.text)
                  0000d610    0000009c     sysbios.aem4f : BIOS.obj (.text:ti_sysbios_knl_Semaphore_Instance_init__E)
                  0000d6ac    0000009a     ti.targets.arm.rtsarm.aem4f : Text.oem4f (.text:xdc_runtime_Text_putSite__E)
                  0000d746    00000002     --HOLE-- [fill = 0]
                  0000d748    00000098     stk.aem4f : ip.oem4f (.text:IPGetRoute)
                  0000d7e0    00000098     netctrl_min_ipv4.aem4f : netctrl.oem4f (.text:NC_SystemOpen)
                  0000d878    00000098     rtsv7M4_T_le_v4SPD16_eabi.lib : fclose.obj (.text)
                  0000d910    00000096     stk.aem4f : nimu.oem4f (.text:NIMUAddEthernetHeader)
                  0000d9a6    00000002     --HOLE-- [fill = 0]
                  0000d9a8    00000094     nettool_ipv4.aem4f : config.oem4f (.text:CfgExecute)
                  0000da3c    00000094                        : config.oem4f (.text:CfgRemoveEntry)
                  0000dad0    00000094     Boot.aem4f : Boot.oem4f (.text:ti_catalog_arm_cortexm4_tiva_ce_Boot_sysCtlClockFreqSet__E)
                  0000db64    00000094     ti.targets.arm.rtsarm.aem4f : Text.oem4f (.text:xdc_runtime_Text_putMod__E)
                  0000dbf8    00000090     stk.aem4f : igmp.oem4f (.text:IGMPMsg)
                  0000dc88    00000090               : sockpcb.oem4f (.text:SockPcbCtlError)
                  0000dd18    00000090     os.aem4f : mem.oem4f (.text:_mmInit)
                  0000dda8    00000090              : mem.oem4f (.text:mmBulkAlloc)
                  0000de38    0000008e     nettool_ipv4.aem4f : dhcpbild.oem4f (.text:dhcpBuildRequest)
                  0000dec6    00000002     --HOLE-- [fill = 0]
                  0000dec8    0000008c     os.aem4f : mem.oem4f (.text:mmInitPage)
                  0000df54    0000008c     tivaRTSC_JS_pem4f.oem4f (.text:ti_ndk_config_tcp_init)
                  0000dfe0    0000008c     sysbios.aem4f : BIOS.obj (.text:ti_sysbios_family_arm_m3_Hwi_initNVIC__E)
                  0000e06c    0000008c                   : m3_TaskSupport_asm.obj (.text:ti_sysbios_family_arm_m3_TaskSupport_buildTaskStack)
                  0000e0f8    0000008a     netctrl_min_ipv4.aem4f : netsrv.oem4f (.text:SPRoute)
                  0000e182    00000002     --HOLE-- [fill = 0]
                  0000e184    00000088     EK_TM4C1294XL.obj (.text:EK_TM4C1294XL_initPWM)
                  0000e20c    00000088     sysbios.aem4f : BIOS.obj (.text:ti_sysbios_knl_Mailbox_Module_startup__E)
                  0000e294    00000086     nettool_ipv4.aem4f : dhcpsm.oem4f (.text:StateRequesting)
                  0000e31a    00000086     rtsv7M4_T_le_v4SPD16_eabi.lib : fd_cmp_t2.obj (.text:__aeabi_cdcmple)
                  0000e3a0    00000086                                   : fd_cmp_t2.obj (.text:__aeabi_cdrcmple)
                  0000e426    00000002     --HOLE-- [fill = 0]
                  0000e428    00000084     drivers_tivaware.aem4f : PWMTiva.oem4f (.text:PWMTiva_control)
                  0000e4ac    00000084     stk.aem4f : tcpprot.oem4f (.text:TcpPrAttach)
                  0000e530    00000084     os.aem4f : mem.oem4f (.text:mmBulkFree)
                  0000e5b4    00000084     sysbios.aem4f : BIOS.obj (.text:ti_sysbios_knl_Task_Module_startup__E)
                  0000e638    00000082     nettool_ipv4.aem4f : dhcpsm.oem4f (.text:StateRenewRebind)
                  0000e6ba    00000002     --HOLE-- [fill = 0]
                  0000e6bc    00000080     stk.aem4f : ip.oem4f (.text:IPMsg)
                  0000e73c    00000080               : lli.oem4f (.text:LLINew)
                  0000e7bc    00000080     netctrl_min_ipv4.aem4f : netsrv.oem4f (.text:NS_BootTask)
                  0000e83c    00000080     stk.aem4f : pbm.oem4f (.text:PBM_alloc)
                  0000e8bc    00000080               : raw.oem4f (.text:RawOutput)
                  0000e93c    00000080     netctrl_min_ipv4.aem4f : netsrv.oem4f (.text:ServiceSpawn)
                  0000e9bc    00000080     os.aem4f : mem.oem4f (.text:mmFree)
                  0000ea3c    0000007f     tivaRTSC_JS_pem4f.oem4f (.text:ti_ndk_config_Global_NetworkIPAddr)
                  0000eabb    00000001     --HOLE-- [fill = 0]
                  0000eabc    0000007e     stk.aem4f : fileuser.oem4f (.text:fdClose)
                  0000eb3a    00000002     --HOLE-- [fill = 0]
                  0000eb3c    0000007c     nettool_ipv4.aem4f : config.oem4f (.text:CfgGetEntry)
                  0000ebb8    0000007c                        : config.oem4f (.text:CfgGetNextEntry)
                  0000ec34    0000007c     drivers_tivaware.aem4f : EMACSnow.oem4f (.text:EMACSnow_processPendingTx)
                  0000ecb0    0000007c                            : EMACSnow.oem4f (.text:EMACSnow_processPhyInterrupt)
                  0000ed2c    0000007c     stk.aem4f : igmp.oem4f (.text:IGMPJoin)
                  0000eda8    0000007c               : socket.oem4f (.text:NDK_setsockopt)
                  0000ee24    0000007c               : nimu.oem4f (.text:NIMURegister)
                  0000eea0    0000007c               : pbm.oem4f (.text:PBM_free)
                  0000ef1c    0000007a               : igmp.oem4f (.text:IGMPDoMCast)
                  0000ef96    0000007a     drivers_tivaware.aem4f : UARTTiva.oem4f (.text:writeData)
                  0000f010    00000078     driverlib.lib : emac.obj (.text:EMACInit)
                  0000f088    00000078     stk.aem4f : socket.oem4f (.text:NDK_sendto)
                  0000f100    00000078               : nimu.oem4f (.text:NIMUShutdown)
                  0000f178    00000078               : tcptime.oem4f (.text:TcpXmitTimer)
                  0000f1f0    00000078               : fileuser.oem4f (.text:fdOpenSession)
                  0000f268    00000078     nettool_ipv4.aem4f : inetaddr.oem4f (.text:inet_pton)
                  0000f2e0    00000078     os.aem4f : task.oem4f (.text:llExit)
                  0000f358    00000078     rtsv7M4_T_le_v4SPD16_eabi.lib : memset_t2.obj (.text)
                  0000f3d0    00000075     stk.aem4f : tcptime.oem4f (.text:TcpTimeoutSackRexmt)
                  0000f445    00000003     --HOLE-- [fill = 0]
                  0000f448    00000074               : raweth.oem4f (.text:RawEthRxPacket)
                  0000f4bc    00000074               : sockpcb.oem4f (.text:SockPcbConnect)
                  0000f530    00000074     sysbios.aem4f : BIOS.obj (.text:ti_sysbios_knl_Clock_start__E)
                  0000f5a4    00000072     stk.aem4f : rtable.oem4f (.text:RtWalkNext)
                  0000f616    00000002     --HOLE-- [fill = 0]
                  0000f618    00000072     os.aem4f : semaphore.oem4f (.text:SemCreateBinary)
                  0000f68a    00000002     --HOLE-- [fill = 0]
                  0000f68c    00000070     drivers_tivaware.aem4f : EMACSnow.oem4f (.text:EMACSnow_hwiIntFxn)
                  0000f6fc    00000070     stk.aem4f : igmp.oem4f (.text:IGMPLeaveHostGroup)
                  0000f76c    00000070               : rtable.oem4f (.text:RtFlush)
                  0000f7dc    00000070               : sock.oem4f (.text:SockShutdown)
                  0000f84c    00000070     nettool_ipv4.aem4f : dhcptags.oem4f (.text:dhcpDecodeType)
                  0000f8bc    00000070     rtsv7M4_T_le_v4SPD16_eabi.lib : printf.obj (.text)
                  0000f92c    00000070     sysbios.aem4f : BIOS.obj (.text:ti_sysbios_family_arm_m3_Hwi_postInit__I)
                  0000f99c    00000070     ti.targets.arm.rtsarm.aem4f : Memory.oem4f (.text:xdc_runtime_Memory_alloc__E)
                  0000fa0c    0000006e     stk.aem4f : socket.oem4f (.text:NDK_recv)
                  0000fa7a    00000002     --HOLE-- [fill = 0]
                  0000fa7c    0000006d               : node.oem4f (.text:NodeNew)
                  0000fae9    00000003     --HOLE-- [fill = 0]
                  0000faec    0000006c     os.aem4f : ossys.oem4f (.text:DbgPrintf)
                  0000fb58    0000006c     drivers_tivaware.aem4f : EMACSnow.oem4f (.text:EMACSnow_emacStop)
                  0000fbc4    0000006c     stk.aem4f : node.oem4f (.text:NodeTreeNew)
                  0000fc30    0000006c     drivers_tivaware.aem4f : UARTTiva.oem4f (.text:UARTTiva_read)
                  0000fc9c    0000006c                            : UARTTiva.oem4f (.text:UARTTiva_write)
                  0000fd08    0000006c     roveWare_tivaWrappers.obj (.text:roveGetStructId_ByteCnt)
                  0000fd74    0000006c     ti.targets.arm.rtsarm.aem4f : Error.oem4f (.text:xdc_runtime_Error_print__E)
                  0000fde0    0000006a     drivers_tivaware.aem4f : PWMTiva.oem4f (.text:PWMTiva_close)
                  0000fe4a    0000006a     stk.aem4f : tcpprot.oem4f (.text:TcpPrInherit)
                  0000feb4    0000006a               : rtable.oem4f (.text:_RtNodeInsert)
                  0000ff1e    00000068               : socket.oem4f (.text:NDK_socket)
                  0000ff86    00000002     --HOLE-- [fill = 0]
                  0000ff88    00000068               : pbm.oem4f (.text:PBM_open)
                  0000fff0    00000068     netctrl_min_ipv4.aem4f : netsrv.oem4f (.text:SPConfig)
                  00010058    00000068     stk.aem4f : sockpcb.oem4f (.text:SockPcbFindRaw)
                  000100c0    00000068               : udp.oem4f (.text:UdpChecksum)
                  00010128    00000068     hal_timer_bios.aem4f : lltimer.oem4f (.text:llTimerTick)
                  00010190    00000066     drivers_tivaware.aem4f : UARTTiva.oem4f (.text:UARTTiva_readPolling)
                  000101f6    00000066     ti.targets.arm.rtsarm.aem4f : Core-mem.oem4f (.text:xdc_runtime_Core_deleteObject__I)
                  0001025c    00000064     nettool_ipv4.aem4f : config.oem4f (.text:CfgFree)
                  000102c0    00000064     stk.aem4f : pbm.oem4f (.text:PBMQ_enq)
                  00010324    00000064     rtsv7M4_T_le_v4SPD16_eabi.lib : fseek.obj (.text)
                  00010388    00000064     tivaRTSC_JS_pem4f.oem4f (.text:ti_sysbios_family_arm_m3_Hwi_create)
                  000103ec    00000064     stk.aem4f : lliin.oem4f (.text:updateRtTable)
                  00010450    00000062               : ipin.oem4f (.text:IPRouteIP)
                  000104b2    00000002     --HOLE-- [fill = 0]
                  000104b4    00000062               : sb.oem4f (.text:SBNew)
                  00010516    00000062     drivers_tivaware.aem4f : UARTTiva.oem4f (.text:UARTTiva_hwiIntFxn)
                  00010578    00000062                            : UARTTiva.oem4f (.text:readData)
                  000105da    00000002     --HOLE-- [fill = 0]
                  000105dc    00000060     nettool_ipv4.aem4f : config.oem4f (.text:CfgGetEntryCnt)
                  0001063c    00000060     stk.aem4f : file.oem4f (.text:FdWaitEvent)
                  0001069c    00000060               : nimu.oem4f (.text:NIMUUnregister)
                  000106fc    00000060               : node.oem4f (.text:NodeFind)
                  0001075c    00000060               : rtc.oem4f (.text:RTCMsg)
                  000107bc    00000060               : tcp.oem4f (.text:TcpChecksum)
                  0001081c    00000060     nettool_ipv4.aem4f : dhcptags.oem4f (.text:dhcpBuildOptions)
                  0001087c    00000060     rtsv7M4_T_le_v4SPD16_eabi.lib : trgmsg.obj (.text)
                  000108dc    00000060     sysbios.aem4f : BIOS.obj (.text:ti_sysbios_family_arm_lm4_Timer_isrStub__E)
                  0001093c    00000060                   : BIOS.obj (.text:ti_sysbios_knl_Clock_logTick__E)
                  0001099c    00000060     ti.targets.arm.rtsarm.aem4f : System.oem4f (.text:xdc_runtime_System_formatNum__I)
                  000109fc    0000005e     stk.aem4f : route.oem4f (.text:RtRemove)
                  00010a5a    0000005e     nettool_ipv4.aem4f : dhcpsm.oem4f (.text:StateSelecting)
                  00010ab8    0000005e     rtsv7M4_T_le_v4SPD16_eabi.lib : copy_decompress_rle.obj (.text)
                  00010b16    00000002     --HOLE-- [fill = 0]
                  00010b18    0000005c     nettool_ipv4.aem4f : config.oem4f (.text:CfgSetExecuteOrder)
                  00010b74    0000005c     stk.aem4f : nimu.oem4f (.text:NIMUIoctlSpecialCmd)
                  00010bd0    0000005c               : sockint.oem4f (.text:SockSpawnAbort)
                  00010c2c    0000005c               : vlan.oem4f (.text:VLANReceivePacket)
                  00010c88    0000005c     sysbios.aem4f : BIOS.obj (.text:ti_sysbios_family_arm_lm4_Timer_Module_startup__E)
                  00010ce4    0000005c     tivaRTSC_JS_pem4f.oem4f (.text:ti_sysbios_knl_Swi_create)
                  00010d40    0000005c     tivaRTSC_JS_pem4f.oem4f (.text:ti_sysbios_knl_Task_create)
                  00010d9c    0000005b     roveWare_tivaWrappers.obj (.text:rovePrintf_ByteBuffer)
                  00010df7    00000001     --HOLE-- [fill = 0]
                  00010df8    0000005b     ti.targets.arm.rtsarm.aem4f : Text.oem4f (.text:xdc_runtime_Text_putLab__E)
                  00010e53    00000001     --HOLE-- [fill = 0]
                  00010e54    0000005a     stk.aem4f : route.oem4f (.text:RtRedirect)
                  00010eae    0000005a               : tcpprot.oem4f (.text:TcpValidateMetrics)
                  00010f08    0000005a     nettool_ipv4.aem4f : dhcpbild.oem4f (.text:dhcpBuildDecline)
                  00010f62    0000005a     rtsv7M4_T_le_v4SPD16_eabi.lib : ltoa.obj (.text)
                  00010fbc    00000058     stk.aem4f : bind.oem4f (.text:BindFree)
                  00011014    00000058     driverlib.lib : emac.obj (.text:EMACPHYConfigSet)
                  0001106c    00000058     stk.aem4f : igmp.oem4f (.text:IGMPTimer)
                  000110c4    00000058     netctrl_min_ipv4.aem4f : netsrv.oem4f (.text:SPService)
                  0001111c    00000058     os.aem4f : semaphore.oem4f (.text:SemCreate)
                  00011174    00000058     boot.aem4f : boot.oem4f (.text)
                  000111cc    00000058     roveBIOS_Init.obj (.text:roveUART_Init)
                  00011224    00000058     tivaRTSC_JS_pem4f.oem4f (.text:ti_sysbios_family_arm_m3_Hwi_construct)
                  0001127c    00000058     sysbios.aem4f : m3_Hwi_asm_switch.obj (.text:ti_sysbios_family_arm_m3_Hwi_initStacks__E)
                  000112d4    00000058                   : BIOS.obj (.text:ti_sysbios_knl_Swi_restoreHwi__E)
                  0001132c    00000058                   : BIOS.obj (.text:ti_sysbios_knl_Swi_schedule__I)
                  00011384    00000054     nettool_ipv4.aem4f : config.oem4f (.text:CfgEntryDeRef)
                  000113d8    00000054     stk.aem4f : igmp.oem4f (.text:IGMPLeave)
                  0001142c    00000054               : rawethsock_pcb.oem4f (.text:RawEthSockPcbAttach)
                  00011480    00000054               : tcptime.oem4f (.text:TcpTimeoutPersist)
                  000114d4    00000054     os.aem4f : mem.oem4f (.text:mmCopy)
                  00011528    00000054     sysbios.aem4f : BIOS.obj (.text:ti_sysbios_knl_Swi_Instance_finalize__E)
                  0001157c    00000050     stk.aem4f : socket.oem4f (.text:NDK_bind)
                  000115cc    00000050               : socket.oem4f (.text:NDK_connect)
                  0001161c    00000050               : route.oem4f (.text:RtNew)
                  0001166c    00000050     driverlib.lib : sysctl.obj (.text:SysCtlPeripheralReset)
                  000116bc    00000050     stk.aem4f : tcpprot.oem4f (.text:TcpPrDetach)
                  0001170c    00000050     Boot.aem4f : Boot_sysctl.oem4f (.text:_SysCtlFrequencyGet)
                  0001175c    00000050     ti.targets.arm.rtsarm.aem4f : Startup.oem4f (.text:xdc_runtime_Startup_exec__E)
                  000117ac    00000050                                 : Text.oem4f (.text:xdc_runtime_Text_visitRope2__I)
                  000117fc    0000004e     stk.aem4f : node.oem4f (.text:NodeDeRef)
                  0001184a    00000002     --HOLE-- [fill = 0]
                  0001184c    0000004c     nettool_ipv4.aem4f : ipaddr.oem4f (.text:NtAddNetwork)
                  00011898    0000004c     stk.aem4f : sockint.oem4f (.text:SockValidateRoute)
                  000118e4    0000004c               : file.oem4f (.text:fdint_lockfd)
                  00011930    0000004c     rtsv7M4_T_le_v4SPD16_eabi.lib : atoi.obj (.text)
                  0001197c    0000004c     sysbios.aem4f : BIOS.obj (.text:ti_sysbios_knl_Swi_runLoop__I)
                  000119c8    0000004a     stk.aem4f : sock.oem4f (.text:SockDisconnect)
                  00011a12    00000002     --HOLE-- [fill = 0]
                  00011a14    0000004a               : timer.oem4f (.text:TimerNew)
                  00011a5e    0000004a     nettool_ipv4.aem4f : config.oem4f (.text:_CfgEntryScan)
                  00011aa8    00000048                        : config.oem4f (.text:CfgNew)
                  00011af0    00000048     drivers_tivaware.aem4f : EMACSnow.oem4f (.text:EMACSnow_processTransmitted)
                  00011b38    00000048     driverlib.lib : gpio.obj (.text:GPIOPinConfigure)
                  00011b80    00000048     stk.aem4f : lli.oem4f (.text:LLIMsg)
                  00011bc8    00000048               : node.oem4f (.text:NodeWalk)
                  00011c10    00000048               : sockpcb.oem4f (.text:SockPcbResolveChain)
                  00011c58    00000048               : tcpprot.oem4f (.text:TcpDrop)
                  00011ca0    00000048               : lli.oem4f (.text:_LLIExpListInsert)
                  00011ce8    00000048               : rtable.oem4f (.text:_RtExpListInsert)
                  00011d30    00000048     roveTCPSocket.obj (.text:roveTCP_Recv)
                  00011d78    00000048     rtsv7M4_T_le_v4SPD16_eabi.lib : fd_toi_t2.obj (.text)
                  00011dc0    00000048     sysbios.aem4f : BIOS.obj (.text:ti_sysbios_family_arm_m3_Hwi_excReserved__I)
                  00011e08    00000048                   : BIOS.obj (.text:ti_sysbios_heaps_HeapMem_getStats__E)
                  00011e50    00000048                   : BIOS.obj (.text:ti_sysbios_knl_Task_deleteTerminatedTasksFunc__I)
                  00011e98    00000048     ti.targets.arm.rtsarm.aem4f : Assert.oem4f (.text:xdc_runtime_Assert_raise__I)
                  00011ee0    00000047     roveBIOS_Init.obj (.text:rovePWM_Init)
                  00011f27    00000001     --HOLE-- [fill = 0]
                  00011f28    00000046     nettool_ipv4.aem4f : ipaddr.oem4f (.text:NtIfIdx2Ip)
                  00011f6e    00000046     netctrl_min_ipv4.aem4f : netsrv.oem4f (.text:ServiceKill)
                  00011fb4    00000046     ti.targets.arm.rtsarm.aem4f : Core-params.oem4f (.text:xdc_runtime_Core_assignParams__I)
                  00011ffa    00000002     --HOLE-- [fill = 0]
                  00011ffc    00000044     EK_TM4C1294XL.obj (.text:EK_TM4C1294XL_initGPIO)
                  00012040    00000044     stk.aem4f : ipfrag.oem4f (.text:IPReasmFree)
                  00012084    00000044               : lli.oem4f (.text:LLIGetValidTime)
                  000120c8    00000044               : rawethsock_pcb.oem4f (.text:RawEthSockPcbDetach)
                  0001210c    00000044               : rtable.oem4f (.text:RouteMsg)
                  00012150    00000044               : rtable.oem4f (.text:RtWalkEnd)
                  00012194    00000044               : timer.oem4f (.text:TimerListInsert)
                  000121d8    00000044     hal_timer_bios.aem4f : lltimer.oem4f (.text:llTimerGetTime)
                  0001221c    00000044     rtsv7M4_T_le_v4SPD16_eabi.lib : cpy_tbl.obj (.text)
                  00012260    00000044                                   : exit.obj (.text)
                  000122a4    00000044                                   : xdtest.obj (.text)
                  000122e8    00000044     sysbios.aem4f : BIOS.obj (.text:ti_sysbios_family_arm_lm4_Timer_stop__E)
                  0001232c    00000044                   : BIOS.obj (.text:ti_sysbios_family_arm_m3_Hwi_disableInterrupt__E)
                  00012370    00000044                   : BIOS.obj (.text:ti_sysbios_family_arm_m3_Hwi_enableInterrupt__E)
                  000123b4    00000044                   : BIOS.obj (.text:ti_sysbios_knl_Task_allBlockedFunction__I)
                  000123f8    00000044     ti.targets.arm.rtsarm.aem4f : Error.oem4f (.text:xdc_runtime_Error_setX__E)
                  0001243c    00000044                                 : SysMin.oem4f (.text:xdc_runtime_SysMin_flush__E)
                  00012480    00000042     stk.aem4f : tcpprot.oem4f (.text:TcpPrSendOOB)
                  000124c2    00000042     driverlib.lib : uart.obj (.text:UARTConfigSetExpClk)
                  00012504    00000042     stk.aem4f : fileuser.oem4f (.text:fdCloseSession)
                  00012546    00000042     rtsv7M4_T_le_v4SPD16_eabi.lib : u_divt2.obj (.text)
                  00012588    00000040     stk.aem4f : lliin.oem4f (.text:LLIValidateRoute)
                  000125c8    00000040               : pbm.oem4f (.text:PBM_copy)
                  00012608    00000040               : sockpcb.oem4f (.text:SockPcbDetach)
                  00012648    00000040               : sockpcb.oem4f (.text:SockPcbRtChange)
                  00012688    00000040               : tcpprot.oem4f (.text:TcpPrDisconnect)
                  000126c8    00000040     drivers_tivaware.aem4f : UARTTiva.oem4f (.text:UARTTiva_writePolling)
                  00012708    00000040     os.aem4f : mem.oem4f (.text:mmZeroInit)
                  00012748    00000040     sysbios.aem4f : BIOS.obj (.text:ti_sysbios_family_arm_lm4_Timer_startup__E)
                  00012788    0000003e     nettool_ipv4.aem4f : dhcpmain.oem4f (.text:DHCPClose)
                  000127c6    0000003e     stk.aem4f : icmp.oem4f (.text:ICMPChecksum)
                  00012804    0000003e               : nimu.oem4f (.text:NIMUAllocateName)
                  00012842    0000003e               : tcpprot.oem4f (.text:TcpPrCtlError)
                  00012880    0000003e               : file.oem4f (.text:fdint_unlockfd)
                  000128be    0000003c     nettool_ipv4.aem4f : config.oem4f (.text:CfgEntryGetData)
                  000128fa    0000003c     driverlib.lib : emac.obj (.text:EMACIntDisable)
                  00012936    0000003c     stk.aem4f : node.oem4f (.text:NodeUpdatePL)
                  00012972    00000002     --HOLE-- [fill = 0]
                  00012974    0000003c               : rtable.oem4f (.text:RtWalkBegin)
                  000129b0    0000003c               : tcpprot.oem4f (.text:TcpPrConnect)
                  000129ec    0000003c               : tcptime.oem4f (.text:TcpSetPersist)
                  00012a28    0000003c               : rtc.oem4f (.text:_RTCSendRtAdv)
                  00012a64    0000003c     hal_timer_bios.aem4f : lltimer.oem4f (.text:_llTimerInit)
                  00012aa0    0000003c     sysbios.aem4f : BIOS.obj (.text:ti_sysbios_family_arm_m3_Hwi_excSvCall__I)
                  00012adc    0000003c                   : BIOS.obj (.text:ti_sysbios_family_arm_m3_Hwi_getStackInfo__E)
                  00012b18    0000003c                   : BIOS.obj (.text:ti_sysbios_heaps_HeapMem_init__I)
                  00012b54    0000003c     tivaRTSC_JS_pem4f.oem4f (.text:ti_sysbios_knl_Clock_create)
                  00012b90    0000003c     sysbios.aem4f : BIOS.obj (.text:ti_sysbios_knl_Swi_startup__E)
                  00012bcc    0000003c     ti.targets.arm.rtsarm.aem4f : Text.oem4f (.text:xdc_runtime_Text_xprintf__I)
                  00012c08    0000003a     driverlib.lib : emac.obj (.text:EMACIntEnable)
                  00012c42    0000003a     stk.aem4f : rtable.oem4f (.text:_RtNodeRemove)
                  00012c7c    00000038     driverlib.lib : emac.obj (.text:EMACConfigGet)
                  00012cb4    00000038     stk.aem4f : ipfrag.oem4f (.text:IPReasmTimeout)
                  00012cec    00000038               : node.oem4f (.text:NodeGetRt)
                  00012d24    00000038     drivers_tivaware.aem4f : PWM.oem4f (.text:PWM_init)
                  00012d5c    00000038     driverlib.lib : sysctl.obj (.text:SysCtlPeripheralReady)
                  00012d94    00000038     os.aem4f : task.oem4f (.text:TaskCreate)
                  00012dcc    00000038     stk.aem4f : tcpprot.oem4f (.text:TcpClose)
                  00012e04    00000038               : timer.oem4f (.text:TimerHSTick)
                  00012e3c    00000038     drivers_tivaware.aem4f : UART.oem4f (.text:UART_init)
                  00012e74    00000038     nettool_ipv4.aem4f : dhcptags.oem4f (.text:dhcpOptionsClear)
                  00012eac    00000038     stk.aem4f : file.oem4f (.text:fdint_waitevent)
                  00012ee4    00000038     sysbios.aem4f : BIOS.obj (.text:ti_sysbios_family_arm_m3_Hwi_excNoIsr__I)
                  00012f1c    00000038                   : BIOS.obj (.text:ti_sysbios_family_arm_m3_TaskSupport_start__E)
                  00012f54    00000038                   : BIOS.obj (.text:ti_sysbios_knl_Task_processVitalTaskFlag__I)
                  00012f8c    00000038     ti.targets.arm.rtsarm.aem4f : SysMin.oem4f (.text:xdc_runtime_SysMin_putch__E)
                  00012fc4    00000038                                 : System.oem4f (.text:xdc_runtime_System_atexit__E)
                  00012ffc    00000034     nettool_ipv4.aem4f : config.oem4f (.text:CfgSetService)
                  00013030    00000034     driverlib.lib : emac.obj (.text:EMACConfigSet)
                  00013064    00000034                   : emac.obj (.text:EMACIntClear)
                  00013098    00000034     drivers_tivaware.aem4f : EMAC.oem4f (.text:EMAC_init)
                  000130cc    00000034     stk.aem4f : ip.oem4f (.text:IPChecksum)
                  00013100    00000034               : nimu.oem4f (.text:NIMUFindByName)
                  00013134    00000034               : nimu.oem4f (.text:NIMUInit)
                  00013168    00000034     driverlib.lib : sysctl.obj (.text:SysCtlPeripheralEnable)
                  0001319c    00000034     drivers_tivaware.aem4f : UARTTiva.oem4f (.text:UARTTiva_close)
                  000131d0    00000034     nettool_ipv4.aem4f : dhcpbild.oem4f (.text:dhcpBuildDiscover)
                  00013204    00000034     os.aem4f : mem.oem4f (.text:mmUnInitPage)
                  00013238    00000034     sysbios.aem4f : BIOS.obj (.text:ti_sysbios_family_arm_m3_Hwi_excNmi__I)
                  0001326c    00000034                   : BIOS.obj (.text:ti_sysbios_hal_Hwi_checkStack)
                  000132a0    00000034     tivaRTSC_JS_pem4f.oem4f (.text:ti_sysbios_knl_Semaphore_create)
                  000132d4    00000034     ti.targets.arm.rtsarm.aem4f : Core-label.oem4f (.text:xdc_runtime_Core_assignLabel__I)
                  00013308    00000033                                 : Text.oem4f (.text:xdc_runtime_Text_printVisFxn__I)
                  0001333b    00000001     --HOLE-- [fill = 0]
                  0001333c    00000032     nettool_ipv4.aem4f : config.oem4f (.text:CfgGetImmediate)
                  0001336e    00000032     stk.aem4f : route.oem4f (.text:RtDeRef)
                  000133a0    00000032               : sb.oem4f (.text:SBSetMax)
                  000133d2    00000032               : sock.oem4f (.text:SockIntAbort)
                  00013404    00000032               : tcpprot.oem4f (.text:TcpPrSend)
                  00013436    00000032     drivers_tivaware.aem4f : UARTTiva.oem4f (.text:UARTTiva_readCancel)
                  00013468    00000032                            : UARTTiva.oem4f (.text:UARTTiva_writeCancel)
                  0001349a    00000032     nettool_ipv4.aem4f : config.oem4f (.text:_CfgAcquire)
                  000134cc    00000032                        : dhcpsm.oem4f (.text:dhcpIPRemove)
                  000134fe    00000032     sysbios.aem4f : BIOS.obj (.text:ti_sysbios_knl_Semaphore_pendTimeout__I)
                  00013530    00000030     driverlib.lib : emac.obj (.text:EMACAddrSet)
                  00013560    00000030     drivers_tivaware.aem4f : EMACSnow.oem4f (.text:EMACSnow_handlePackets)
                  00013590    00000030     os.aem4f : task.oem4f (.text:NDK_hookCreate)
                  000135c0    00000030     netctrl_min_ipv4.aem4f : netsrv.oem4f (.text:NS_PreBoot)
                  000135f0    00000030     drivers_tivaware.aem4f : PWMTiva.oem4f (.text:PWMTiva_init)
                  00013620    00000030     stk.aem4f : sb.oem4f (.text:SBFlush)
                  00013650    00000030               : sock.oem4f (.text:SockBind)
                  00013680    00000030               : sockpcb.oem4f (.text:SockCleanPcb)
                  000136b0    00000030               : sockprot.oem4f (.text:SockPrCtlError)
                  000136e0    00000030     nettool_ipv4.aem4f : dhcpsock.oem4f (.text:dhcpPacketSend)
                  00013710    00000030     stk.aem4f : listlib.oem4f (.text:list_remove_node)
                  00013740    00000030     rtsv7M4_T_le_v4SPD16_eabi.lib : strncpy.obj (.text)
                  00013770    00000030     tivaRTSC_JS_pem4f.oem4f (.text:ti_sysbios_BIOS_atExitFunc__I)
                  000137a0    00000030     tivaRTSC_JS_pem4f.oem4f (.text:ti_sysbios_gates_GateHwi_Object__create__S)
                  000137d0    00000030     tivaRTSC_JS_pem4f.oem4f (.text:ti_sysbios_gates_GateMutex_Object__create__S)
                  00013800    00000030     tivaRTSC_JS_pem4f.oem4f (.text:ti_sysbios_heaps_HeapMem_Object__create__S)
                  00013830    00000030     tivaRTSC_JS_pem4f.oem4f (.text:ti_sysbios_knl_Semaphore_construct)
                  00013860    00000030     ti.targets.arm.rtsarm.aem4f : SysMin.oem4f (.text:xdc_runtime_SysMin_abort__E)
                  00013890    00000030                                 : System.oem4f (.text:xdc_runtime_System_processAtExit__E)
                  000138c0    0000002e     stk.aem4f : rawethsock.oem4f (.text:RawEthSockNotify)
                  000138ee    0000002e               : route.oem4f (.text:RtSetFailure)
                  0001391c    0000002e               : sb.oem4f (.text:SBFree)
                  0001394a    0000002e     tivaRTSC_JS_pem4f.oem4f (.text:malloc)
                  00013978    0000002e     rtsv7M4_T_le_v4SPD16_eabi.lib : i_tofd_t2.obj (.text)
                  000139a6    0000002c     driverlib.lib : emac.obj (.text:EMACIntStatus)
                  000139d2    0000002c     stk.aem4f : file.oem4f (.text:FdSignalEvent)
                  000139fe    0000002c               : nimu.oem4f (.text:NIMUAllocateIndex)
                  00013a2a    00000002     --HOLE-- [fill = 0]
                  00013a2c    0000002c               : nimu.oem4f (.text:NIMUPacketServiceCheck)
                  00013a58    0000002c               : pipe.oem4f (.text:PipeClose)
                  00013a84    0000002c               : sockpcb.oem4f (.text:SockPcbAttach)
                  00013ab0    0000002c     Boot.aem4f : Boot_sysctl.oem4f (.text:_SysCtlMemTimingGet)
                  00013adc    0000002c     sysbios.aem4f : BIOS.obj (.text:ti_sysbios_hal_Hwi_initStack)
                  00013b08    0000002c     tivaRTSC_JS_pem4f.oem4f (.text:ti_sysbios_knl_Clock_doTick__I)
                  00013b34    0000002c     tivaRTSC_JS_pem4f.oem4f (.text:ti_sysbios_knl_Queue_construct)
                  00013b60    0000002c     sysbios.aem4f : BIOS.obj (.text:ti_sysbios_knl_Task_restore__E)
                  00013b8c    0000002c     ti.targets.arm.rtsarm.aem4f : Text.oem4f (.text:xdc_runtime_Text_cordText__E)
                  00013bb8    0000002a     driverlib.lib : gpio.obj (.text:GPIODirModeSet)
                  00013be2    0000002a     stk.aem4f : lli.oem4f (.text:LLIFree)
                  00013c0c    0000002a               : pbm.oem4f (.text:PBMQ_deq)
                  00013c36    0000002a     nettool_ipv4.aem4f : config.oem4f (.text:_CfgRelease)
                  00013c60    0000002a     ti.targets.arm.rtsarm.aem4f : System.oem4f (.text:xdc_runtime_System_putchar__I)
                  00013c8a    00000002     --HOLE-- [fill = 0]
                  00013c8c    00000028     stk.aem4f : bind.oem4f (.text:BindFindByNet)
                  00013cb4    00000028     drivers_tivaware.aem4f : EMACSnow.oem4f (.text:EMACSnow_isLinkUp)
                  00013cdc    00000028                            : EMACSnow.oem4f (.text:EMACSnow_pkt_service)
                  00013d04    00000028     stk.aem4f : igmp.oem4f (.text:IGMPTestGroup)
                  00013d2c    00000028     netctrl_min_ipv4.aem4f : netctrl.oem4f (.text:NC_SystemClose)
                  00013d54    00000028     stk.aem4f : nimu.oem4f (.text:NIMUCreatePacket)
                  00013d7c    00000028               : nimu.oem4f (.text:NIMUPacketService)
                  00013da4    00000028     netctrl_min_ipv4.aem4f : netsrv.oem4f (.text:ServiceCallback)
                  00013dcc    00000028     stk.aem4f : tcpin.oem4f (.text:TcpEnterTimeWait)
                  00013df4    00000028               : vlan.oem4f (.text:VLANFindSourceInterface)
                  00013e1c    00000028               : vlan.oem4f (.text:VLANInit)
                  00013e44    00000028               : lli.oem4f (.text:_LLIExpListRemove)
                  00013e6c    00000028               : lli.oem4f (.text:_LLITimeoutFlush)
                  00013e94    00000028               : rtable.oem4f (.text:_RtExpListRemove)
                  00013ebc    00000028     nettool_ipv4.aem4f : dhcpsock.oem4f (.text:dhcpPacketReceive)
                  00013ee4    00000028     sysbios.aem4f : BIOS.obj (.text:ti_sysbios_family_arm_m3_Hwi_Instance_finalize__E)
                  00013f0c    00000026     driverlib.lib : emac.obj (.text:EMACPHYRead)
                  00013f32    00000026                   : emac.obj (.text:EMACPHYWrite)
                  00013f58    00000026     stk.aem4f : rawethsock.oem4f (.text:RawEthSockClose)
                  00013f7e    00000026               : route.oem4f (.text:RtSetTimeout)
                  00013fa4    00000026     tivaRTSC_JS_pem4f.oem4f (.text:ti_ndk_config_udp_init)
                  00013fca    00000026     sysbios.aem4f : m3_Hwi_asm.obj (.text:ti_sysbios_family_arm_m3_Hwi_pendSV__I)
                  00013ff0    00000026     ti.targets.arm.rtsarm.aem4f : System.oem4f (.text:xdc_runtime_System_avprintf__E)
                  00014016    00000024     stk.aem4f : bind.oem4f (.text:BindGetIFByDBCast)
                  0001403a    00000002     --HOLE-- [fill = 0]
                  0001403c    00000024     drivers_tivaware.aem4f : EMACSnow.oem4f (.text:EMACSnow_emacPoll)
                  00014060    00000024                            : EMACSnow.oem4f (.text:EMACSnow_primeRx)
                  00014084    00000024     stk.aem4f : exec.oem4f (.text:ExecTimer)
                  000140a8    00000024     drivers_tivaware.aem4f : GPIOTiva.oem4f (.text:GPIO_init)
                  000140cc    00000024     stk.aem4f : nimu.oem4f (.text:NIMUFindByIndex)
                  000140f0    00000024               : rawethsock_pcb.oem4f (.text:RawEthSockPcbFind)
                  00014114    00000024               : route.oem4f (.text:RtFree)
                  00014138    00000024               : sockpcb.oem4f (.text:SockPcbCleanup)
                  0001415c    00000024               : tcptime.oem4f (.text:TcpTimeoutWait2)
                  00014180    00000024               : timer.oem4f (.text:TimerListRemove)
                  000141a4    00000024     nettool_ipv4.aem4f : config.oem4f (.text:_CfgEntryProcess)
                  000141c8    00000024     tivaRTSC_JS_pem4f.oem4f (.text:ti_sysbios_BIOS_errorRaiseHook__I)
                  000141ec    00000024     tivaRTSC_JS_pem4f.oem4f (.text:ti_sysbios_BIOS_registerRTSLock__I)
                  00014210    00000024     tivaRTSC_JS_pem4f.oem4f (.text:ti_sysbios_BIOS_removeRTSLock__I)
                  00014234    00000024     tivaRTSC_JS_pem4f.oem4f (.text:ti_sysbios_BIOS_startFunc__I)
                  00014258    00000024     sysbios.aem4f : BIOS.obj (.text:ti_sysbios_family_arm_m3_Hwi_doTaskRestore__I)
                  0001427c    00000024     tivaRTSC_JS_pem4f.oem4f (.text:ti_sysbios_gates_GateMutex_Object__delete__S)
                  000142a0    00000024     sysbios.aem4f : BIOS.obj (.text:ti_sysbios_knl_Clock_Module_startup__E)
                  000142c4    00000024     tivaRTSC_JS_pem4f.oem4f (.text:ti_sysbios_knl_Semaphore_Object__delete__S)
                  000142e8    00000024     sysbios.aem4f : BIOS.obj (.text:ti_sysbios_knl_Swi_Module_startup__E)
                  0001430c    00000024                   : BIOS.obj (.text:ti_sysbios_knl_Task_enter__I)
                  00014330    00000024     ti.targets.arm.rtsarm.aem4f : System.oem4f (.text:xdc_runtime_System_vprintf__E)
                  00014354    00000022     nettool_ipv4.aem4f : config.oem4f (.text:CfgEntryInfo)
                  00014376    00000022                        : config.oem4f (.text:CfgEntryRef)
                  00014398    00000022     driverlib.lib : pwm.obj (.text:PWMGenConfigure)
                  000143ba    00000022     drivers_tivaware.aem4f : PWMTiva.oem4f (.text:PWMTiva_getPeriodCounts)
                  000143dc    00000022     stk.aem4f : vlan.oem4f (.text:VLANFindNode)
                  000143fe    00000022     roveTCPSocket.obj (.text:setsockopt)
                  00014420    00000022     tivaRTSC_JS_pem4f.oem4f (.text:xdc_runtime_SysMin_output__I)
                  00014442    00000002     --HOLE-- [fill = 0]
                  00014444    00000020     stk.aem4f : bind.oem4f (.text:BindFindByHost)
                  00014464    00000020     netctrl_min_ipv4.aem4f : netctrl.oem4f (.text:NC_BootComplete)
                  00014484    00000020     stk.aem4f : nimu.oem4f (.text:NIMUGetNumOfObject)
                  000144a4    00000020               : rtc.oem4f (.text:RTCAddHook)
                  000144c4    00000020               : rtc.oem4f (.text:RTCRemoveHook)
                  000144e4    00000020     tivaRTSC_JS_pem4f.oem4f (.text:ti_sysbios_family_arm_m3_Hwi_Object__delete__S)
                  00014504    00000020     sysbios.aem4f : m3_Hwi_asm.obj (.text:ti_sysbios_family_arm_m3_Hwi_excHandlerAsm__I)
                  00014524    00000020                   : BIOS.obj (.text:ti_sysbios_family_arm_m3_Hwi_excHandler__I)
                  00014544    00000020     tivaRTSC_JS_pem4f.oem4f (.text:ti_sysbios_gates_GateHwi_Object__delete__S)
                  00014564    00000020     tivaRTSC_JS_pem4f.oem4f (.text:ti_sysbios_heaps_HeapMem_Object__delete__S)
                  00014584    00000020     sysbios.aem4f : BIOS.obj (.text:ti_sysbios_knl_Idle_run__E)
                  000145a4    00000020     tivaRTSC_JS_pem4f.oem4f (.text:ti_sysbios_knl_Semaphore_Object__destruct__S)
                  000145c4    00000020     tivaRTSC_JS_pem4f.oem4f (.text:ti_sysbios_knl_Swi_Object__delete__S)
                  000145e4    00000020     tivaRTSC_JS_pem4f.oem4f (.text:ti_sysbios_knl_Task_Object__delete__S)
                  00014604    00000020     ti.targets.arm.rtsarm.aem4f : Registry.oem4f (.text:xdc_runtime_Registry_findById__E)
                  00014624    00000020                                 : SysMin.oem4f (.text:xdc_runtime_SysMin_Module_startup__E)
                  00014644    0000001e     driverlib.lib : pwm.obj (.text:PWMPulseWidthSet)
                  00014662    0000001e     drivers_tivaware.aem4f : PWMTiva.oem4f (.text:PWMTiva_getPeriodMicroSecs)
                  00014680    0000001e     stk.aem4f : fileuser.oem4f (.text:fdError)
                  0001469e    0000001e               : listlib.oem4f (.text:list_remove)
                  000146bc    0000001e     roveTCPSocket.obj (.text:recv)
                  000146da    0000001e     sysbios.aem4f : m3_Hwi_asm_switch.obj (.text:ti_sysbios_family_xxx_Hwi_switchAndRunFunc)
                  000146f8    0000001c     stk.aem4f : bind.oem4f (.text:BindFindByIF)
                  00014714    0000001c     drivers_tivaware.aem4f : EMACSnow.oem4f (.text:EMACSnow_init)
                  00014730    0000001c     stk.aem4f : exec.oem4f (.text:ExecBroadcast)
                  0001474c    0000001c               : exec.oem4f (.text:ExecClose)
                  00014768    0000001c     os.aem4f : ossys.oem4f (.text:NDK_sprintf)
                  00014784    0000001c     stk.aem4f : nimu.oem4f (.text:NIMUAddHeader)
                  000147a0    0000001c               : sockprot.oem4f (.text:SockPrDetach)
                  000147bc    0000001c     os.aem4f : task.oem4f (.text:TaskDestroy)
                  000147d8    0000001c     stk.aem4f : tcp.oem4f (.text:TcpTimeoutRemove)
                  000147f4    0000001c     driverlib.lib : uart.obj (.text:UARTDisable)
                  00014810    0000001c     rtsv7M4_T_le_v4SPD16_eabi.lib : memccpy.obj (.text)
                  0001482c    0000001c     tivaRTSC_JS_pem4f.oem4f (.text:ti_ndk_config_global_taskCreateHook)
                  00014848    0000001c     tivaRTSC_JS_pem4f.oem4f (.text:ti_sysbios_BIOS_rtsLock__I)
                  00014864    0000001c     tivaRTSC_JS_pem4f.oem4f (.text:ti_sysbios_family_arm_m3_Hwi_Object__destruct__S)
                  00014880    0000001c     sysbios.aem4f : BIOS.obj (.text:ti_sysbios_gates_GateMutex_Instance_init__E)
                  0001489c    0000001c     tivaRTSC_JS_pem4f.oem4f (.text:ti_sysbios_knl_Queue_Object__destruct__S)
                  000148b8    0000001c     ti.targets.arm.rtsarm.aem4f : Error.oem4f (.text:xdc_runtime_Error_raiseX__E)
                  000148d4    0000001c                                 : Memory.oem4f (.text:xdc_runtime_Memory_valloc__E)
                  000148f0    0000001c                                 : SysMin.oem4f (.text:xdc_runtime_SysMin_exit__E)
                  0001490c    0000001c                                 : System.oem4f (.text:xdc_runtime_System_abort__E)
                  00014928    0000001a     stk.aem4f : sockint.oem4f (.text:SockSetOOBMark)
                  00014942    0000001a               : file.oem4f (.text:fdint_getfdt)
                  0001495c    0000001a     tivaRTSC_JS_pem4f.oem4f (.text:ti_sysbios_family_arm_m3_Hwi_Handle__label__S)
                  00014976    0000001a     tivaRTSC_JS_pem4f.oem4f (.text:ti_sysbios_gates_GateHwi_Handle__label__S)
                  00014990    0000001a     tivaRTSC_JS_pem4f.oem4f (.text:ti_sysbios_gates_GateMutex_Handle__label__S)
                  000149aa    0000001a     tivaRTSC_JS_pem4f.oem4f (.text:ti_sysbios_heaps_HeapMem_Handle__label__S)
                  000149c4    0000001a     tivaRTSC_JS_pem4f.oem4f (.text:ti_sysbios_knl_Swi_Handle__label__S)
                  000149de    0000001a     tivaRTSC_JS_pem4f.oem4f (.text:ti_sysbios_knl_Task_Handle__label__S)
                  000149f8    0000001a     sysbios.aem4f : BIOS.obj (.text:ti_sysbios_knl_Task_sleepTimeout__I)
                  00014a12    0000001a     tivaRTSC_JS_pem4f.oem4f (.text:xdc_runtime_System_aprintf__E)
                  00014a2c    0000001a     tivaRTSC_JS_pem4f.oem4f (.text:xdc_runtime_System_printf__E)
                  00014a46    00000002     --HOLE-- [fill = 0]
                  00014a48    00000018     drivers_tivaware.aem4f : EMACSnow.oem4f (.text:EMACSnow_emacSend)
                  00014a60    00000018     driverlib.lib : gpio.obj (.text:GPIOPinTypeGPIOOutput)
                  00014a78    00000018     stk.aem4f : ip.oem4f (.text:IPRtChange)
                  00014a90    00000018     drivers_tivaware.aem4f : PWM.oem4f (.text:PWM_open)
                  00014aa8    00000018     stk.aem4f : rawethsock_pcb.oem4f (.text:RawEthSockPcbCleanup)
                  00014ac0    00000018     nettool_ipv4.aem4f : ipaddr.oem4f (.text:RouteHook)
                  00014ad8    00000018     stk.aem4f : tcpin.oem4f (.text:SEQ_GEQ)
                  00014af0    00000018               : tcpout.oem4f (.text:SEQ_GEQ)
                  00014b08    00000018               : tcpin.oem4f (.text:SEQ_GT)
                  00014b20    00000018               : tcpout.oem4f (.text:SEQ_GT)
                  00014b38    00000018               : tcpin.oem4f (.text:SEQ_LEQ)
                  00014b50    00000018               : tcpout.oem4f (.text:SEQ_LEQ)
                  00014b68    00000018               : tcpin.oem4f (.text:SEQ_LT)
                  00014b80    00000018               : tcpout.oem4f (.text:SEQ_LT)
                  00014b98    00000018               : tcp.oem4f (.text:TcpTimeoutAdd)
                  00014bb0    00000018     drivers_tivaware.aem4f : UART.oem4f (.text:UART_Params_init)
                  00014bc8    00000018                            : UART.oem4f (.text:UART_open)
                  00014be0    00000018     nettool_ipv4.aem4f : dhcpsock.oem4f (.text:dhcpSocketClose)
                  00014bf8    00000018     tivaRTSC_JS_pem4f.oem4f (.text:free)
                  00014c10    00000018     stk.aem4f : listlib.oem4f (.text:list_add)
                  00014c28    00000018     rtsv7M4_T_le_v4SPD16_eabi.lib : args_main.obj (.text)
                  00014c40    00000018                                   : ll_mul_t2.obj (.text)
                  00014c58    00000018                                   : strcmp.obj (.text)
                  00014c70    00000018     tivaRTSC_JS_pem4f.oem4f (.text:ti_sysbios_BIOS_rtsUnlock__I)
                  00014c88    00000018     tivaRTSC_JS_pem4f.oem4f (.text:ti_sysbios_family_arm_lm4_Timer_Module__startupDone__F)
                  00014ca0    00000018     tivaRTSC_JS_pem4f.oem4f (.text:ti_sysbios_family_arm_m3_Hwi_Module__startupDone__F)
                  00014cb8    00000018     sysbios.aem4f : m3_TaskSupport_asm.obj (.text:ti_sysbios_family_arm_m3_TaskSupport_swap__E)
                  00014cd0    00000018                   : BIOS.obj (.text:ti_sysbios_gates_GateMutex_leave__E)
                  00014ce8    00000018     ti.targets.arm.rtsarm.aem4f : Error.oem4f (.text:xdc_runtime_Error_check__E)
                  00014d00    00000018                                 : System.oem4f (.text:xdc_runtime_System_exit__E)
                  00014d18    00000018                                 : Text.oem4f (.text:xdc_runtime_Text_ropeText__E)
                  00014d30    00000016     stk.aem4f : bind.oem4f (.text:BindGetIP)
                  00014d46    00000016     driverlib.lib : emac.obj (.text:EMACReset)
                  00014d5c    00000016                   : emac.obj (.text:EMACRxEnable)
                  00014d72    00000016                   : emac.obj (.text:EMACTxEnable)
                  00014d88    00000016     stk.aem4f : file.oem4f (.text:fdint_freefdt)
                  00014d9e    00000016     rtsv7M4_T_le_v4SPD16_eabi.lib : memchr.obj (.text)
                  00014db4    00000016                                   : strchr.obj (.text)
                  00014dca    00000016     tivaRTSC_JS_pem4f.oem4f (.text:ti_sysbios_BIOS_exitFunc__I)
                  00014de0    00000016     ti.targets.arm.rtsarm.aem4f : System.oem4f (.text:xdc_runtime_System_vsprintf__E)
                  00014df6    00000014     stk.aem4f : bind.oem4f (.text:BindIPHost2IF)
                  00014e0a    00000002     --HOLE-- [fill = 0]
                  00014e0c    00000014     driverlib.lib : flash.obj (.text:FlashUserGet)
                  00014e20    00000014     netctrl_min_ipv4.aem4f : netctrl.oem4f (.text:NC_NetStop)
                  00014e34    00000014     os.aem4f : task.oem4f (.text:NDK_hookExit)
                  00014e48    00000014     stk.aem4f : nimu.oem4f (.text:NIMUSendPacket)
                  00014e5c    00000014     nettool_ipv4.aem4f : ipaddr.oem4f (.text:NtRemoveNetwork)
                  00014e70    00000014     driverlib.lib : pwm.obj (.text:PWMClockSet)
                  00014e84    00000014     stk.aem4f : rawethsock_pcb.oem4f (.text:RawEthSockPcbInit)
                  00014e98    00000014     driverlib.lib : sysctl.obj (.text:SysCtlPWMClockSet)
                  00014eac    00000014     stk.aem4f : timer.oem4f (.text:TimerFree)
                  00014ec0    00000014     driverlib.lib : uart.obj (.text:UARTEnable)
                  00014ed4    00000014     roveTCPSocket.obj (.text:connect)
                  00014ee8    00000014     rtsv7M4_T_le_v4SPD16_eabi.lib : _lock.obj (.text)
                  00014efc    00000014                                   : strlen.obj (.text)
                  00014f10    00000014     roveTCPSocket.obj (.text:socket)
                  00014f24    00000014     tivaRTSC_JS_pem4f.oem4f (.text:ti_ndk_config_global_taskExitHook)
                  00014f38    00000014     tivaRTSC_JS_pem4f.oem4f (.text:ti_sysbios_family_arm_m3_Hwi_Object__get__S)
                  00014f4c    00000014     sysbios.aem4f : BIOS.obj (.text:ti_sysbios_family_arm_m3_Hwi_switchFromBootStack__E)
                  00014f60    00000014     tivaRTSC_JS_pem4f.oem4f (.text:ti_sysbios_heaps_HeapMem_Object__get__S)
                  00014f74    00000014     tivaRTSC_JS_pem4f.oem4f (.text:ti_sysbios_knl_Swi_Object__get__S)
                  00014f88    00000014     tivaRTSC_JS_pem4f.oem4f (.text:ti_sysbios_knl_Task_Object__first__S)
                  00014f9c    00000014     tivaRTSC_JS_pem4f.oem4f (.text:ti_sysbios_knl_Task_Object__next__S)
                  00014fb0    00000012     driverlib.lib : gpio.obj (.text:GPIOPinTypeEthernetLED)
                  00014fc2    00000012                   : gpio.obj (.text:GPIOPinTypePWM)
                  00014fd4    00000012                   : gpio.obj (.text:GPIOPinTypeUART)
                  00014fe6    00000012                   : pwm.obj (.text:PWMGenPeriodGet)
                  00014ff8    00000012                   : pwm.obj (.text:PWMOutputInvert)
                  0001500a    00000012                   : pwm.obj (.text:PWMOutputState)
                  0001501c    00000012     stk.aem4f : sockprot.oem4f (.text:SockPrAttach)
                  0001502e    00000012               : sockint.oem4f (.text:SockSetOOBData)
                  00015040    00000012     rtsv7M4_T_le_v4SPD16_eabi.lib : copy_zero_init.obj (.text:decompress:ZI)
                  00015052    00000012     nettool_ipv4.aem4f : inetaddr.oem4f (.text:inet_addr)
                  00015064    00000012     rtsv7M4_T_le_v4SPD16_eabi.lib : xdclass.obj (.text)
                  00015076    00000012     sysbios.aem4f : BIOS.obj (.text:ti_sysbios_hal_Hwi_Module_startup__E)
                  00015088    00000012                   : BIOS.obj (.text:ti_sysbios_knl_Semaphore_reset__E)
                  0001509a    00000012     tivaRTSC_JS_pem4f.oem4f (.text:xdc_runtime_Startup_exec__I)
                  000150ac    00000010     tivaRTSC_JS_pem4f.oem4f (.text:.bootCodeSection:ti_catalog_arm_cortexm4_tiva_ce_Boot_init__I)
                  000150bc    00000010     stk.aem4f : bind.oem4f (.text:BindIF2IPHost)
                  000150cc    00000010               : bind.oem4f (.text:BindIFNet2IPHost)
                  000150dc    00000010     driverlib.lib : emac.obj (.text:EMACFrameFilterSet)
                  000150ec    00000010     stk.aem4f : exec.oem4f (.text:ExecHRef)
                  000150fc    00000010     netctrl_min_ipv4.aem4f : netctrl.oem4f (.text:NC_IPUpdate)
                  0001510c    00000010     stk.aem4f : nimu.oem4f (.text:NIMUGetRsvdSizeInfo)
                  0001511c    00000010     driverlib.lib : pwm.obj (.text:PWMGenPeriodSet)
                  0001512c    00000010     drivers_tivaware.aem4f : PWM.oem4f (.text:PWM_Params_init)
                  0001513c    00000010     rtsv7M4_T_le_v4SPD16_eabi.lib : strcpy.obj (.text)
                  0001514c    00000010     sysbios.aem4f : BIOS.obj (.text:ti_sysbios_BIOS_getCpuFreq__E)
                  0001515c    00000010                   : BIOS.obj (.text:ti_sysbios_BIOS_setThreadType__E)
                  0001516c    00000010                   : BIOS.obj (.text:ti_sysbios_BIOS_start__E)
                  0001517c    00000010                   : m3_TaskSupport_asm.obj (.text:ti_sysbios_family_arm_m3_TaskSupport_glue)
                  0001518c    00000010                   : BIOS.obj (.text:ti_sysbios_gates_GateMutex_Instance_finalize__E)
                  0001519c    00000010     tivaRTSC_JS_pem4f.oem4f (.text:ti_sysbios_knl_Mailbox_Object__get__S)
                  000151ac    00000010     sysbios.aem4f : BIOS.obj (.text:ti_sysbios_knl_Semaphore_Instance_finalize__E)
                  000151bc    00000010                   : BIOS.obj (.text:ti_sysbios_knl_Swi_disable__E)
                  000151cc    00000010     tivaRTSC_JS_pem4f.oem4f (.text:ti_sysbios_knl_Task_Object__get__S)
                  000151dc    00000010     sysbios.aem4f : BIOS.obj (.text:ti_sysbios_knl_Task_disable__E)
                  000151ec    00000010                   : BIOS.obj (.text:ti_sysbios_knl_Task_getIdleTask__E)
                  000151fc    00000010     ti.targets.arm.rtsarm.aem4f : Gate.oem4f (.text:xdc_runtime_Gate_leaveSystem__E)
                  0001520c    00000010                                 : Memory.oem4f (.text:xdc_runtime_Memory_free__E)
                  0001521c    00000010                                 : SysMin.oem4f (.text:xdc_runtime_SysMin_ready__E)
                  0001522c    00000010                                 : System.oem4f (.text:xdc_runtime_System_vsnprintf__E)
                  0001523c    00000010     tivaRTSC_JS_pem4f.oem4f (.text:xdc_runtime_Text_visitRope__I)
                  0001524c    0000000e     drivers_tivaware.aem4f : EMACSnow.oem4f (.text:EMACSnow_emacioctl)
                  0001525a    0000000e     stk.aem4f : exec.oem4f (.text:ExecLowResource)
                  00015268    0000000e     driverlib.lib : uart.obj (.text:UARTCharGetNonBlocking)
                  00015276    0000000e                   : uart.obj (.text:UARTCharPutNonBlocking)
                  00015284    0000000e     rtsv7M4_T_le_v4SPD16_eabi.lib : copy_decompress_none.obj (.text:decompress:none)
                  00015292    0000000e     sysbios.aem4f : BIOS.obj (.text:ti_sysbios_knl_Queue_empty__E)
                  000152a0    0000000c     stk.aem4f : bind.oem4f (.text:BindGetFirst)
                  000152ac    0000000c     nettool_ipv4.aem4f : config.oem4f (.text:CfgSetDefault)
                  000152b8    0000000c     os.aem4f : task.oem4f (.text:NDK_hookInit)
                  000152c4    0000000c     stk.aem4f : nimu.oem4f (.text:NIMUSetRsvdSizeInfo)
                  000152d0    0000000c     os.aem4f : task.oem4f (.text:NotifyLowResource)
                  000152dc    0000000c     stk.aem4f : pbm.oem4f (.text:PBM_close)
                  000152e8    0000000c     driverlib.lib : pwm.obj (.text:PWMGenDisable)
                  000152f4    0000000c                   : pwm.obj (.text:PWMGenEnable)
                  00015300    0000000c     os.aem4f : semaphore.oem4f (.text:SemDelete)
                  0001530c    0000000c     hal_timer_bios.aem4f : lltimer.oem4f (.text:_llTimerShutdown)
                  00015318    0000000c     roveDeviceTemplate_Thread.obj (.text:close)
                  00015324    0000000c     hal_timer_bios.aem4f : lltimer.oem4f (.text:llTimerGetStartTime)
                  00015330    0000000c     sysbios.aem4f : BIOS.obj (.text:ti_sysbios_BIOS_getThreadType__E)
                  0001533c    0000000c                   : BIOS.obj (.text:ti_sysbios_family_arm_lm4_Timer_getMaxTicks__E)
                  00015348    0000000c     tivaRTSC_JS_pem4f.oem4f (.text:ti_sysbios_family_arm_m3_Hwi_Params__init__S)
                  00015354    0000000c     sysbios.aem4f : BIOS.obj (.text:ti_sysbios_family_arm_m3_Hwi_disableFxn__E)
                  00015360    0000000c                   : BIOS.obj (.text:ti_sysbios_family_arm_m3_TaskSupport_checkStack__E)
                  0001536c    0000000c                   : BIOS.obj (.text:ti_sysbios_family_arm_m3_TaskSupport_getStackAlignment__E)
                  00015378    0000000c                   : BIOS.obj (.text:ti_sysbios_gates_GateHwi_enter__E)
                  00015384    0000000c     tivaRTSC_JS_pem4f.oem4f (.text:ti_sysbios_knl_Clock_Params__init__S)
                  00015390    0000000c     sysbios.aem4f : BIOS.obj (.text:ti_sysbios_knl_Clock_getTicks__E)
                  0001539c    0000000c     tivaRTSC_JS_pem4f.oem4f (.text:ti_sysbios_knl_Queue_Object__get__S)
                  000153a8    0000000c     tivaRTSC_JS_pem4f.oem4f (.text:ti_sysbios_knl_Semaphore_Params__init__S)
                  000153b4    0000000c     tivaRTSC_JS_pem4f.oem4f (.text:ti_sysbios_knl_Task_Params__init__S)
                  000153c0    0000000c     sysbios.aem4f : BIOS.obj (.text:ti_sysbios_knl_Task_self__E)
                  000153cc    0000000c     ti.targets.arm.rtsarm.aem4f : Error.oem4f (.text:xdc_runtime_Error_init__E)
                  000153d8    0000000c                                 : Gate.oem4f (.text:xdc_runtime_Gate_enterSystem__E)
                  000153e4    0000000c                                 : Memory.oem4f (.text:xdc_runtime_Memory_calloc__E)
                  000153f0    0000000c                                 : Memory.oem4f (.text:xdc_runtime_Memory_getMaxDefaultTypeAlign__E)
                  000153fc    0000000a     driverlib.lib : uart.obj (.text:UARTCharGet)
                  00015406    0000000a                   : uart.obj (.text:UARTCharPut)
                  00015410    0000000a                   : uart.obj (.text:UARTIntDisable)
                  0001541a    0000000a                   : uart.obj (.text:UARTIntStatus)
                  00015424    0000000a     stk.aem4f : file.oem4f (.text:fdint_signalevent)
                  0001542e    0000000a               : file.oem4f (.text:fdint_signaltimeout)
                  00015438    0000000a     tivaRTSC_JS_pem4f.oem4f (.text:xdc_runtime_IHeap_alloc)
                  00015442    0000000a     tivaRTSC_JS_pem4f.oem4f (.text:xdc_runtime_IHeap_free)
                  0001544c    00000008     driverlib.lib : emac.obj (.text:EMACTxDMAPollDemand)
                  00015454    00000008     stk.aem4f : node.oem4f (.text:NodeFree)
                  0001545c    00000008     os.aem4f : task.oem4f (.text:TaskBlock)
                  00015464    00000008     driverlib.lib : uart.obj (.text:UARTIntEnable)
                  0001546c    00000008     drivers_tivaware.aem4f : UARTTiva.oem4f (.text:UARTTiva_init)
                  00015474    00000008                            : UARTTiva.oem4f (.text:readSemCallback)
                  0001547c    00000008     sysbios.aem4f : BIOS.obj (.text:ti_sysbios_family_arm_lm4_Timer_masterDisable__I)
                  00015484    00000008                   : BIOS.obj (.text:ti_sysbios_family_arm_m3_Hwi_doSwiRestore__I)
                  0001548c    00000008                   : BIOS.obj (.text:ti_sysbios_family_arm_m3_Hwi_startup__E)
                  00015494    00000008                   : BIOS.obj (.text:ti_sysbios_knl_Idle_loop__E)
                  0001549c    00000008                   : BIOS.obj (.text:ti_sysbios_knl_Task_getHookContext__E)
                  000154a4    00000008                   : BIOS.obj (.text:ti_sysbios_knl_Task_setHookContext__E)
                  000154ac    00000008     drivers_tivaware.aem4f : UARTTiva.oem4f (.text:writeSemCallback)
                  000154b4    00000006     driverlib.lib : emac.obj (.text:EMACRxDMADescriptorListSet)
                  000154ba    00000006                   : emac.obj (.text:EMACTxDMADescriptorListSet)
                  000154c0    00000006                   : sysctl.obj (.text:SysCtlDelay)
                  000154c6    00000006     stk.aem4f : tcpprot.oem4f (.text:TcpPrRecv)
                  000154cc    00000006     driverlib.lib : uart.obj (.text:UARTFIFOLevelSet)
                  000154d2    00000006     drivers_tivaware.aem4f : UARTTiva.oem4f (.text:UARTTiva_control)
                  000154d8    00000006     ti.targets.arm.rtsarm.aem4f : xdc_noinit.oem4f (.text:__xdc__init)
                  000154de    00000006     rtsv7M4_T_le_v4SPD16_eabi.lib : copy_decompress_rle.obj (.text:decompress:rle24)
                  000154e4    00000006     sysbios.aem4f : BIOS.obj (.text:ti_sysbios_family_arm_m3_Hwi_restoreFxn__E)
                  000154ea    00000006                   : BIOS.obj (.text:ti_sysbios_gates_GateHwi_leave__E)
                  000154f0    00000006                   : BIOS.obj (.text:ti_sysbios_heaps_HeapMem_isBlocking__E)
                  000154f6    00000006                   : BIOS.obj (.text:ti_sysbios_knl_Queue_Instance_init__E)
                  000154fc    00000006     ti.targets.arm.rtsarm.aem4f : System.oem4f (.text:xdc_runtime_System_Module_startup__E)
                  00015502    00000004     stk.aem4f : bind.oem4f (.text:BindGetIF)
                  00015506    00000004               : bind.oem4f (.text:BindGetNext)
                  0001550a    00000004     os.aem4f : ossys.oem4f (.text:NDK_vsprintf)
                  0001550e    00000004     stk.aem4f : node.oem4f (.text:NodeSetRt)
                  00015512    00000004               : rawethsock_prot.oem4f (.text:RawEthSockPrAttach)
                  00015516    00000004               : rawethsock_prot.oem4f (.text:RawEthSockPrDetach)
                  0001551a    00000004     os.aem4f : semaphore.oem4f (.text:SemPend)
                  0001551e    00000004              : semaphore.oem4f (.text:SemPost)
                  00015522    00000004              : semaphore.oem4f (.text:SemReset)
                  00015526    00000004              : task.oem4f (.text:TaskSelf)
                  0001552a    00000004              : task.oem4f (.text:TaskSetPri)
                  0001552e    00000004     driverlib.lib : uart.obj (.text:UARTIntClear)
                  00015532    00000004     hal_ser_stub.aem4f : llserstb.oem4f (.text:_llSerialInit)
                  00015536    00000004     stk.aem4f : listlib.oem4f (.text:list_get_head)
                  0001553a    00000004               : listlib.oem4f (.text:list_get_next)
                  0001553e    00000004     tivaRTSC_JS_pem4f.oem4f (.text:ti_sysbios_BIOS_RtsGateProxy_enter__E)
                  00015542    00000004     tivaRTSC_JS_pem4f.oem4f (.text:ti_sysbios_BIOS_RtsGateProxy_leave__E)
                  00015546    00000004     sysbios.aem4f : BIOS.obj (.text:ti_sysbios_family_arm_lm4_Timer_masterEnable__I)
                  0001554a    00000004     tivaRTSC_JS_pem4f.oem4f (.text:ti_sysbios_family_arm_m3_Hwi_delete)
                  0001554e    00000004     tivaRTSC_JS_pem4f.oem4f (.text:ti_sysbios_family_arm_m3_Hwi_destruct)
                  00015552    00000004     tivaRTSC_JS_pem4f.oem4f (.text:ti_sysbios_family_arm_m3_TaskSupport_Module__startupDone__S)
                  00015556    00000004     sysbios.aem4f : BIOS.obj (.text:ti_sysbios_gates_GateHwi_query__E)
                  0001555a    00000004                   : BIOS.obj (.text:ti_sysbios_gates_GateMutex_query__E)
                  0001555e    00000004     tivaRTSC_JS_pem4f.oem4f (.text:ti_sysbios_hal_Hwi_HwiProxy_Module__startupDone__S)
                  00015562    00000004     tivaRTSC_JS_pem4f.oem4f (.text:ti_sysbios_heaps_HeapMem_Module_GateProxy_enter__E)
                  00015566    00000004     tivaRTSC_JS_pem4f.oem4f (.text:ti_sysbios_heaps_HeapMem_Module_GateProxy_leave__E)
                  0001556a    00000004     tivaRTSC_JS_pem4f.oem4f (.text:ti_sysbios_knl_Clock_TimerProxy_Module__startupDone__S)
                  0001556e    00000004     tivaRTSC_JS_pem4f.oem4f (.text:ti_sysbios_knl_Clock_TimerProxy_getMaxTicks__E)
                  00015572    00000004     tivaRTSC_JS_pem4f.oem4f (.text:ti_sysbios_knl_Queue_destruct)
                  00015576    00000004     tivaRTSC_JS_pem4f.oem4f (.text:ti_sysbios_knl_Semaphore_delete)
                  0001557a    00000004     tivaRTSC_JS_pem4f.oem4f (.text:ti_sysbios_knl_Semaphore_destruct)
                  0001557e    00000004     tivaRTSC_JS_pem4f.oem4f (.text:ti_sysbios_knl_Swi_delete)
                  00015582    00000004     tivaRTSC_JS_pem4f.oem4f (.text:ti_sysbios_knl_Task_SupportProxy_Module__startupDone__S)
                  00015586    00000004     tivaRTSC_JS_pem4f.oem4f (.text:ti_sysbios_knl_Task_delete)
                  0001558a    00000004     sysbios.aem4f : BIOS.obj (.text:ti_sysbios_knl_Task_startup__E)
                  0001558e    00000004     ti.targets.arm.rtsarm.aem4f : Error.oem4f (.text:xdc_runtime_Error_getMsg__E)
                  00015592    00000004                                 : Error.oem4f (.text:xdc_runtime_Error_getSite__E)
                  00015596    00000004     tivaRTSC_JS_pem4f.oem4f (.text:xdc_runtime_Memory_HeapProxy_alloc__E)
                  0001559a    00000004     tivaRTSC_JS_pem4f.oem4f (.text:xdc_runtime_Memory_HeapProxy_free__E)
                  0001559e    00000004     tivaRTSC_JS_pem4f.oem4f (.text:xdc_runtime_System_Module_GateProxy_enter__E)
                  000155a2    00000004     tivaRTSC_JS_pem4f.oem4f (.text:xdc_runtime_System_Module_GateProxy_leave__E)
                  000155a6    00000004     ti.targets.arm.rtsarm.aem4f : System.oem4f (.text:xdc_runtime_System_aprintf_va__F)
                  000155aa    00000004                                 : System.oem4f (.text:xdc_runtime_System_printf_va__F)

.const     0    000155b0    000026ce     
                  000155b0    00001805     tivaRTSC_JS_pem4f.oem4f (.const:xdc_runtime_Text_charTab__A)
                  00016db5    00000001     tivaRTSC_JS_pem4f.oem4f (.const:xdc_runtime_Error_policy__C)
                  00016db6    00000002     tivaRTSC_JS_pem4f.oem4f (.const:ti_catalog_arm_cortexm4_tiva_ce_Boot_Module__id__C)
                  00016db8    00000120     Boot.aem4f : Boot_sysctl.oem4f (.const:g_pppui32XTALtoVCO)
                  00016ed8    00000102     rtsv7M4_T_le_v4SPD16_eabi.lib : ctype.obj (.const:.string:_ctypes_)
                  00016fda    00000002     tivaRTSC_JS_pem4f.oem4f (.const:ti_sysbios_family_arm_m3_Hwi_Module__id__C)
                  00016fdc    000000f4     tivaRTSC_JS_pem4f.oem4f (.const:.string)
                  000170d0    000000d8     tivaRTSC_JS_pem4f.oem4f (.const:xdc_runtime_Text_nodeTab__A)
                  000171a8    00000090     driverlib.lib : gpio.obj (.const:g_pui32GPIOBaseAddrs)
                  00017238    00000078     EK_TM4C1294XL.obj (.const:gpioHWAttrs)
                  000172b0    0000006c     EK_TM4C1294XL.obj (.const:UART_config)
                  0001731c    0000006c     Boot.aem4f : Boot_sysctl.oem4f (.const:g_pui32Xtals)
                  00017388    00000060     EK_TM4C1294XL.obj (.const:PWM_config)
                  000173e8    00000054     stk.aem4f : sockprot.oem4f (.const:Code2Err)
                  0001743c    00000054     EK_TM4C1294XL.obj (.const:pwmTivaHWAttrs)
                  00017490    00000040     EK_TM4C1294XL.obj (.const:uartTivaHWAttrs)
                  000174d0    0000003e     stk.aem4f : rtc.oem4f (.const:.string)
                  0001750e    00000002     tivaRTSC_JS_pem4f.oem4f (.const:ti_sysbios_family_arm_m3_Hwi_Module__loggerDefined__C)
                  00017510    0000003c     tivaRTSC_JS_pem4f.oem4f (.const:ti_sysbios_knl_Task_Object__PARAMS__C)
                  0001754c    00000030     Boot.aem4f : Boot_sysctl.oem4f (.const:g_sXTALtoMEMTIM)
                  0001757c    00000030     tivaRTSC_JS_pem4f.oem4f (.const:ti_sysbios_family_arm_m3_Hwi_Object__PARAMS__C)
                  000175ac    0000002c     EK_TM4C1294XL.obj (.const:GPIO_config)
                  000175d8    0000002c     drivers_tivaware.aem4f : UARTTiva.oem4f (.const)
                  00017604    00000028                            : UARTTiva.oem4f (.const:UARTTiva_fxnTable)
                  0001762c    00000028     tivaRTSC_JS_pem4f.oem4f (.const:ti_sysbios_heaps_HeapMem_Module__FXNS__C)
                  00017654    00000028     tivaRTSC_JS_pem4f.oem4f (.const:ti_sysbios_knl_Swi_Object__PARAMS__C)
                  0001767c    00000024     drivers_tivaware.aem4f : UART.oem4f (.const:UART_defaultParams)
                  000176a0    00000024     tivaRTSC_JS_pem4f.oem4f (.const:ti_sysbios_gates_GateHwi_Module__FXNS__C)
                  000176c4    00000024     tivaRTSC_JS_pem4f.oem4f (.const:ti_sysbios_gates_GateMutex_Module__FXNS__C)
                  000176e8    00000024     tivaRTSC_JS_pem4f.oem4f (.const:ti_sysbios_heaps_HeapMem_Object__PARAMS__C)
                  0001770c    00000024     tivaRTSC_JS_pem4f.oem4f (.const:ti_sysbios_knl_Clock_Object__PARAMS__C)
                  00017730    00000024     tivaRTSC_JS_pem4f.oem4f (.const:ti_sysbios_knl_Semaphore_Object__PARAMS__C)
                  00017754    00000024     tivaRTSC_JS_pem4f.oem4f (.const:xdc_runtime_Startup_sfxnTab__A)
                  00017778    00000020     drivers_tivaware.aem4f : PWMTiva.oem4f (.const)
                  00017798    00000020     tivaRTSC_JS_pem4f.oem4f (.const:ti_sysbios_family_arm_m3_Hwi_Object__DESC__C)
                  000177b8    00000020     tivaRTSC_JS_pem4f.oem4f (.const:ti_sysbios_gates_GateHwi_Object__DESC__C)
                  000177d8    00000020     tivaRTSC_JS_pem4f.oem4f (.const:ti_sysbios_gates_GateMutex_Object__DESC__C)
                  000177f8    00000020     tivaRTSC_JS_pem4f.oem4f (.const:ti_sysbios_heaps_HeapMem_Object__DESC__C)
                  00017818    00000020     tivaRTSC_JS_pem4f.oem4f (.const:ti_sysbios_knl_Clock_Object__DESC__C)
                  00017838    00000020     tivaRTSC_JS_pem4f.oem4f (.const:ti_sysbios_knl_Queue_Object__DESC__C)
                  00017858    00000020     tivaRTSC_JS_pem4f.oem4f (.const:ti_sysbios_knl_Semaphore_Object__DESC__C)
                  00017878    00000020     tivaRTSC_JS_pem4f.oem4f (.const:ti_sysbios_knl_Swi_Object__DESC__C)
                  00017898    00000020     tivaRTSC_JS_pem4f.oem4f (.const:ti_sysbios_knl_Task_Object__DESC__C)
                  000178b8    0000001c     tivaRTSC_JS_pem4f.oem4f (.const)
                  000178d4    00000018     EK_TM4C1294XL.obj (.const:EMAC_config)
                  000178ec    00000018     driverlib.lib : emac.obj (.const)
                  00017904    00000018     tivaRTSC_JS_pem4f.oem4f (.const:ti_sysbios_gates_GateHwi_Object__PARAMS__C)
                  0001791c    00000018     tivaRTSC_JS_pem4f.oem4f (.const:ti_sysbios_gates_GateMutex_Object__PARAMS__C)
                  00017934    00000018     tivaRTSC_JS_pem4f.oem4f (.const:ti_sysbios_knl_Queue_Object__PARAMS__C)
                  0001794c    00000018     tivaRTSC_JS_pem4f.oem4f (.const:ti_sysbios_knl_Task_hooks__A)
                  00017964    00000014     tivaRTSC_JS_pem4f.oem4f (.const:xdc_runtime_Startup_firstFxns__A)
                  00017978    00000012     tivaRTSC_JS_pem4f.oem4f (.const:xdc_runtime_Startup_sfxnRts__A)
                  0001798a    00000011     ti.targets.arm.rtsarm.aem4f : System.oem4f (.const:.string)
                  0001799b    00000001     --HOLE-- [fill = 0]
                  0001799c    0000000c     drivers_tivaware.aem4f : PWM.oem4f (.const)
                  000179a8    0000000c     EK_TM4C1294XL.obj (.const:emacHWAttrs)
                  000179b4    00000008     Boot.aem4f : Boot_sysctl.oem4f (.const)
                  000179bc    00000008     drivers_tivaware.aem4f : EMACSnow.oem4f (.const)
                  000179c4    00000008     tivaRTSC_JS_pem4f.oem4f (.const:ti_sysbios_family_arm_m3_Hwi_excHookFuncs__A)
                  000179cc    00000008     tivaRTSC_JS_pem4f.oem4f (.const:ti_sysbios_knl_Idle_funcList__A)
                  000179d4    00000008     tivaRTSC_JS_pem4f.oem4f (.const:ti_sysbios_knl_Idle_funcList__C)
                  000179dc    00000008     tivaRTSC_JS_pem4f.oem4f (.const:ti_sysbios_knl_Task_hooks__C)
                  000179e4    00000008     tivaRTSC_JS_pem4f.oem4f (.const:xdc_runtime_Startup_firstFxns__C)
                  000179ec    00000008     tivaRTSC_JS_pem4f.oem4f (.const:xdc_runtime_Startup_lastFxns__C)
                  000179f4    00000004     tivaRTSC_JS_pem4f.oem4f (.const:ti_catalog_arm_cortexm4_tiva_ce_Boot_A_mustNotUseEnhancedClockMode__C)
                  000179f8    00000004     tivaRTSC_JS_pem4f.oem4f (.const:ti_catalog_arm_cortexm4_tiva_ce_Boot_Module__diagsEnabled__C)
                  000179fc    00000004     tivaRTSC_JS_pem4f.oem4f (.const:ti_catalog_arm_cortexm4_tiva_ce_Boot_Module__diagsIncluded__C)
                  00017a00    00000004     tivaRTSC_JS_pem4f.oem4f (.const:ti_catalog_arm_cortexm4_tiva_ce_Boot_Module__diagsMask__C)
                  00017a04    00000004     tivaRTSC_JS_pem4f.oem4f (.const:ti_sysbios_family_arm_lm4_Timer_enableFunc__C)
                  00017a08    00000004     tivaRTSC_JS_pem4f.oem4f (.const:ti_sysbios_family_arm_lm4_Timer_numTimerDevices__C)
                  00017a0c    00000004     tivaRTSC_JS_pem4f.oem4f (.const:ti_sysbios_family_arm_lm4_Timer_startupNeeded__C)
                  00017a10    00000004     tivaRTSC_JS_pem4f.oem4f (.const:ti_sysbios_family_arm_m3_Hwi_E_NMI__C)
                  00017a14    00000004     tivaRTSC_JS_pem4f.oem4f (.const:ti_sysbios_family_arm_m3_Hwi_E_alreadyDefined__C)
                  00017a18    00000004     tivaRTSC_JS_pem4f.oem4f (.const:ti_sysbios_family_arm_m3_Hwi_E_busFault__C)
                  00017a1c    00000004     tivaRTSC_JS_pem4f.oem4f (.const:ti_sysbios_family_arm_m3_Hwi_E_debugMon__C)
                  00017a20    00000004     tivaRTSC_JS_pem4f.oem4f (.const:ti_sysbios_family_arm_m3_Hwi_E_hardFault__C)
                  00017a24    00000004     tivaRTSC_JS_pem4f.oem4f (.const:ti_sysbios_family_arm_m3_Hwi_E_memFault__C)
                  00017a28    00000004     tivaRTSC_JS_pem4f.oem4f (.const:ti_sysbios_family_arm_m3_Hwi_E_noIsr__C)
                  00017a2c    00000004     tivaRTSC_JS_pem4f.oem4f (.const:ti_sysbios_family_arm_m3_Hwi_E_reserved__C)
                  00017a30    00000004     tivaRTSC_JS_pem4f.oem4f (.const:ti_sysbios_family_arm_m3_Hwi_E_svCall__C)
                  00017a34    00000004     tivaRTSC_JS_pem4f.oem4f (.const:ti_sysbios_family_arm_m3_Hwi_E_usageFault__C)
                  00017a38    00000004     tivaRTSC_JS_pem4f.oem4f (.const:ti_sysbios_family_arm_m3_Hwi_LD_end__C)
                  00017a3c    00000004     tivaRTSC_JS_pem4f.oem4f (.const:ti_sysbios_family_arm_m3_Hwi_LM_begin__C)
                  00017a40    00000004     tivaRTSC_JS_pem4f.oem4f (.const:ti_sysbios_family_arm_m3_Hwi_Module__diagsEnabled__C)
                  00017a44    00000004     tivaRTSC_JS_pem4f.oem4f (.const:ti_sysbios_family_arm_m3_Hwi_Module__diagsIncluded__C)
                  00017a48    00000004     tivaRTSC_JS_pem4f.oem4f (.const:ti_sysbios_family_arm_m3_Hwi_Module__diagsMask__C)
                  00017a4c    00000004     tivaRTSC_JS_pem4f.oem4f (.const:ti_sysbios_family_arm_m3_Hwi_Module__loggerFxn1__C)
                  00017a50    00000004     tivaRTSC_JS_pem4f.oem4f (.const:ti_sysbios_family_arm_m3_Hwi_Module__loggerFxn8__C)
                  00017a54    00000004     tivaRTSC_JS_pem4f.oem4f (.const:ti_sysbios_family_arm_m3_Hwi_Module__loggerObj__C)
                  00017a58    00000004     tivaRTSC_JS_pem4f.oem4f (.const:ti_sysbios_family_arm_m3_Hwi_NUM_INTERRUPTS__C)
                  00017a5c    00000004     tivaRTSC_JS_pem4f.oem4f (.const:ti_sysbios_family_arm_m3_Hwi_Object__count__C)
                  00017a60    00000004     tivaRTSC_JS_pem4f.oem4f (.const:ti_sysbios_family_arm_m3_Hwi_ccr__C)
                  00017a64    00000004     tivaRTSC_JS_pem4f.oem4f (.const:ti_sysbios_family_arm_m3_Hwi_excHandlerFunc__C)
                  00017a68    00000004     tivaRTSC_JS_pem4f.oem4f (.const:ti_sysbios_family_arm_m3_Hwi_excHookFuncs__C)
                  00017a6c    00000004     tivaRTSC_JS_pem4f.oem4f (.const:ti_sysbios_family_arm_m3_Hwi_nullIsrFunc__C)
                  00017a70    00000004     tivaRTSC_JS_pem4f.oem4f (.const:ti_sysbios_family_arm_m3_Hwi_priGroup__C)
                  00017a74    00000004     tivaRTSC_JS_pem4f.oem4f (.const:ti_sysbios_family_arm_m3_TaskSupport_stackAlignment__C)
                  00017a78    00000004     tivaRTSC_JS_pem4f.oem4f (.const:ti_sysbios_gates_GateMutex_A_badContext__C)
                  00017a7c    00000004     tivaRTSC_JS_pem4f.oem4f (.const:ti_sysbios_gates_GateMutex_Instance_State_sem__O)
                  00017a80    00000004     tivaRTSC_JS_pem4f.oem4f (.const:ti_sysbios_gates_GateMutex_Module__diagsEnabled__C)
                  00017a84    00000004     tivaRTSC_JS_pem4f.oem4f (.const:ti_sysbios_gates_GateMutex_Module__diagsIncluded__C)
                  00017a88    00000004     tivaRTSC_JS_pem4f.oem4f (.const:ti_sysbios_gates_GateMutex_Module__diagsMask__C)
                  00017a8c    00000004     tivaRTSC_JS_pem4f.oem4f (.const:ti_sysbios_hal_Hwi_E_stackOverflow__C)
                  00017a90    00000004     tivaRTSC_JS_pem4f.oem4f (.const:ti_sysbios_heaps_HeapMem_A_align__C)
                  00017a94    00000004     tivaRTSC_JS_pem4f.oem4f (.const:ti_sysbios_heaps_HeapMem_A_heapSize__C)
                  00017a98    00000004     tivaRTSC_JS_pem4f.oem4f (.const:ti_sysbios_heaps_HeapMem_A_invalidFree__C)
                  00017a9c    00000004     tivaRTSC_JS_pem4f.oem4f (.const:ti_sysbios_heaps_HeapMem_A_zeroBlock__C)
                  00017aa0    00000004     tivaRTSC_JS_pem4f.oem4f (.const:ti_sysbios_heaps_HeapMem_E_memory__C)
                  00017aa4    00000004     tivaRTSC_JS_pem4f.oem4f (.const:ti_sysbios_heaps_HeapMem_Module__diagsEnabled__C)
                  00017aa8    00000004     tivaRTSC_JS_pem4f.oem4f (.const:ti_sysbios_heaps_HeapMem_Module__diagsIncluded__C)
                  00017aac    00000004     tivaRTSC_JS_pem4f.oem4f (.const:ti_sysbios_heaps_HeapMem_Module__diagsMask__C)
                  00017ab0    00000004     tivaRTSC_JS_pem4f.oem4f (.const:ti_sysbios_heaps_HeapMem_Module__gateObj__C)
                  00017ab4    00000004     tivaRTSC_JS_pem4f.oem4f (.const:ti_sysbios_heaps_HeapMem_Object__count__C)
                  00017ab8    00000004     tivaRTSC_JS_pem4f.oem4f (.const:ti_sysbios_heaps_HeapMem_reqAlign__C)
                  00017abc    00000004     tivaRTSC_JS_pem4f.oem4f (.const:ti_sysbios_knl_Clock_A_badThreadType__C)
                  00017ac0    00000004     tivaRTSC_JS_pem4f.oem4f (.const:ti_sysbios_knl_Clock_LM_begin__C)
                  00017ac4    00000004     tivaRTSC_JS_pem4f.oem4f (.const:ti_sysbios_knl_Clock_LM_tick__C)
                  00017ac8    00000004     tivaRTSC_JS_pem4f.oem4f (.const:ti_sysbios_knl_Clock_LW_delayed__C)
                  00017acc    00000004     tivaRTSC_JS_pem4f.oem4f (.const:ti_sysbios_knl_Clock_Module_State_clockQ__O)
                  00017ad0    00000004     tivaRTSC_JS_pem4f.oem4f (.const:ti_sysbios_knl_Clock_Module__diagsEnabled__C)
                  00017ad4    00000004     tivaRTSC_JS_pem4f.oem4f (.const:ti_sysbios_knl_Clock_Module__diagsIncluded__C)
                  00017ad8    00000004     tivaRTSC_JS_pem4f.oem4f (.const:ti_sysbios_knl_Clock_Module__diagsMask__C)
                  00017adc    00000004     tivaRTSC_JS_pem4f.oem4f (.const:ti_sysbios_knl_Clock_Module__loggerFxn1__C)
                  00017ae0    00000004     tivaRTSC_JS_pem4f.oem4f (.const:ti_sysbios_knl_Clock_Module__loggerFxn2__C)
                  00017ae4    00000004     tivaRTSC_JS_pem4f.oem4f (.const:ti_sysbios_knl_Clock_Module__loggerObj__C)
                  00017ae8    00000004     tivaRTSC_JS_pem4f.oem4f (.const:ti_sysbios_knl_Mailbox_Instance_State_freeQue__O)
                  00017aec    00000004     tivaRTSC_JS_pem4f.oem4f (.const:ti_sysbios_knl_Mailbox_Object__count__C)
                  00017af0    00000004     tivaRTSC_JS_pem4f.oem4f (.const:ti_sysbios_knl_Mailbox_maxTypeAlign__C)
                  00017af4    00000004     tivaRTSC_JS_pem4f.oem4f (.const:ti_sysbios_knl_Semaphore_A_badContext__C)
                  00017af8    00000004     tivaRTSC_JS_pem4f.oem4f (.const:ti_sysbios_knl_Semaphore_A_noEvents__C)
                  00017afc    00000004     tivaRTSC_JS_pem4f.oem4f (.const:ti_sysbios_knl_Semaphore_A_overflow__C)
                  00017b00    00000004     tivaRTSC_JS_pem4f.oem4f (.const:ti_sysbios_knl_Semaphore_A_pendTaskDisabled__C)
                  00017b04    00000004     tivaRTSC_JS_pem4f.oem4f (.const:ti_sysbios_knl_Semaphore_Instance_State_pendQ__O)
                  00017b08    00000004     tivaRTSC_JS_pem4f.oem4f (.const:ti_sysbios_knl_Semaphore_LM_pend__C)
                  00017b0c    00000004     tivaRTSC_JS_pem4f.oem4f (.const:ti_sysbios_knl_Semaphore_LM_post__C)
                  00017b10    00000004     tivaRTSC_JS_pem4f.oem4f (.const:ti_sysbios_knl_Semaphore_Module__diagsEnabled__C)
                  00017b14    00000004     tivaRTSC_JS_pem4f.oem4f (.const:ti_sysbios_knl_Semaphore_Module__diagsIncluded__C)
                  00017b18    00000004     tivaRTSC_JS_pem4f.oem4f (.const:ti_sysbios_knl_Semaphore_Module__diagsMask__C)
                  00017b1c    00000004     tivaRTSC_JS_pem4f.oem4f (.const:ti_sysbios_knl_Semaphore_Module__loggerFxn2__C)
                  00017b20    00000004     tivaRTSC_JS_pem4f.oem4f (.const:ti_sysbios_knl_Semaphore_Module__loggerFxn4__C)
                  00017b24    00000004     tivaRTSC_JS_pem4f.oem4f (.const:ti_sysbios_knl_Semaphore_Module__loggerObj__C)
                  00017b28    00000004     tivaRTSC_JS_pem4f.oem4f (.const:ti_sysbios_knl_Swi_A_badPriority__C)
                  00017b2c    00000004     tivaRTSC_JS_pem4f.oem4f (.const:ti_sysbios_knl_Swi_LD_end__C)
                  00017b30    00000004     tivaRTSC_JS_pem4f.oem4f (.const:ti_sysbios_knl_Swi_LM_begin__C)
                  00017b34    00000004     tivaRTSC_JS_pem4f.oem4f (.const:ti_sysbios_knl_Swi_LM_post__C)
                  00017b38    00000004     tivaRTSC_JS_pem4f.oem4f (.const:ti_sysbios_knl_Swi_Module__diagsEnabled__C)
                  00017b3c    00000004     tivaRTSC_JS_pem4f.oem4f (.const:ti_sysbios_knl_Swi_Module__diagsIncluded__C)
                  00017b40    00000004     tivaRTSC_JS_pem4f.oem4f (.const:ti_sysbios_knl_Swi_Module__diagsMask__C)
                  00017b44    00000004     tivaRTSC_JS_pem4f.oem4f (.const:ti_sysbios_knl_Swi_Module__loggerFxn1__C)
                  00017b48    00000004     tivaRTSC_JS_pem4f.oem4f (.const:ti_sysbios_knl_Swi_Module__loggerFxn4__C)
                  00017b4c    00000004     tivaRTSC_JS_pem4f.oem4f (.const:ti_sysbios_knl_Swi_Module__loggerObj__C)
                  00017b50    00000004     tivaRTSC_JS_pem4f.oem4f (.const:ti_sysbios_knl_Swi_Object__count__C)
                  00017b54    00000004     tivaRTSC_JS_pem4f.oem4f (.const:ti_sysbios_knl_Task_A_badPriority__C)
                  00017b58    00000004     tivaRTSC_JS_pem4f.oem4f (.const:ti_sysbios_knl_Task_A_badTaskState__C)
                  00017b5c    00000004     tivaRTSC_JS_pem4f.oem4f (.const:ti_sysbios_knl_Task_A_badThreadType__C)
                  00017b60    00000004     tivaRTSC_JS_pem4f.oem4f (.const:ti_sysbios_knl_Task_A_badTimeout__C)
                  00017b64    00000004     tivaRTSC_JS_pem4f.oem4f (.const:ti_sysbios_knl_Task_A_noPendElem__C)
                  00017b68    00000004     tivaRTSC_JS_pem4f.oem4f (.const:ti_sysbios_knl_Task_A_sleepTaskDisabled__C)
                  00017b6c    00000004     tivaRTSC_JS_pem4f.oem4f (.const:ti_sysbios_knl_Task_E_deleteNotAllowed__C)
                  00017b70    00000004     tivaRTSC_JS_pem4f.oem4f (.const:ti_sysbios_knl_Task_E_spOutOfBounds__C)
                  00017b74    00000004     tivaRTSC_JS_pem4f.oem4f (.const:ti_sysbios_knl_Task_E_stackOverflow__C)
                  00017b78    00000004     tivaRTSC_JS_pem4f.oem4f (.const:ti_sysbios_knl_Task_LD_block__C)
                  00017b7c    00000004     tivaRTSC_JS_pem4f.oem4f (.const:ti_sysbios_knl_Task_LD_exit__C)
                  00017b80    00000004     tivaRTSC_JS_pem4f.oem4f (.const:ti_sysbios_knl_Task_LD_ready__C)
                  00017b84    00000004     tivaRTSC_JS_pem4f.oem4f (.const:ti_sysbios_knl_Task_LM_setPri__C)
                  00017b88    00000004     tivaRTSC_JS_pem4f.oem4f (.const:ti_sysbios_knl_Task_LM_sleep__C)
                  00017b8c    00000004     tivaRTSC_JS_pem4f.oem4f (.const:ti_sysbios_knl_Task_LM_switch__C)
                  00017b90    00000004     tivaRTSC_JS_pem4f.oem4f (.const:ti_sysbios_knl_Task_Module_State_inactiveQ__O)
                  00017b94    00000004     tivaRTSC_JS_pem4f.oem4f (.const:ti_sysbios_knl_Task_Module_State_terminatedQ__O)
                  00017b98    00000004     tivaRTSC_JS_pem4f.oem4f (.const:ti_sysbios_knl_Task_Module__diagsEnabled__C)
                  00017b9c    00000004     tivaRTSC_JS_pem4f.oem4f (.const:ti_sysbios_knl_Task_Module__diagsIncluded__C)
                  00017ba0    00000004     tivaRTSC_JS_pem4f.oem4f (.const:ti_sysbios_knl_Task_Module__diagsMask__C)
                  00017ba4    00000004     tivaRTSC_JS_pem4f.oem4f (.const:ti_sysbios_knl_Task_Module__loggerFxn2__C)
                  00017ba8    00000004     tivaRTSC_JS_pem4f.oem4f (.const:ti_sysbios_knl_Task_Module__loggerFxn4__C)
                  00017bac    00000004     tivaRTSC_JS_pem4f.oem4f (.const:ti_sysbios_knl_Task_Module__loggerObj__C)
                  00017bb0    00000004     tivaRTSC_JS_pem4f.oem4f (.const:ti_sysbios_knl_Task_Object__count__C)
                  00017bb4    00000004     tivaRTSC_JS_pem4f.oem4f (.const:ti_sysbios_knl_Task_Object__heap__C)
                  00017bb8    00000004     tivaRTSC_JS_pem4f.oem4f (.const:ti_sysbios_knl_Task_allBlockedFunc__C)
                  00017bbc    00000004     tivaRTSC_JS_pem4f.oem4f (.const:ti_sysbios_knl_Task_defaultStackHeap__C)
                  00017bc0    00000004     tivaRTSC_JS_pem4f.oem4f (.const:ti_sysbios_knl_Task_defaultStackSize__C)
                  00017bc4    00000004     tivaRTSC_JS_pem4f.oem4f (.const:ti_sysbios_knl_Task_numConstructedTasks__C)
                  00017bc8    00000004     tivaRTSC_JS_pem4f.oem4f (.const:xdc_runtime_Assert_E_assertFailed__C)
                  00017bcc    00000004     tivaRTSC_JS_pem4f.oem4f (.const:xdc_runtime_Core_A_initializedParams__C)
                  00017bd0    00000004     tivaRTSC_JS_pem4f.oem4f (.const:xdc_runtime_Core_Module__diagsEnabled__C)
                  00017bd4    00000004     tivaRTSC_JS_pem4f.oem4f (.const:xdc_runtime_Core_Module__diagsIncluded__C)
                  00017bd8    00000004     tivaRTSC_JS_pem4f.oem4f (.const:xdc_runtime_Core_Module__diagsMask__C)
                  00017bdc    00000004     tivaRTSC_JS_pem4f.oem4f (.const:xdc_runtime_Error_E_memory__C)
                  00017be0    00000004     tivaRTSC_JS_pem4f.oem4f (.const:xdc_runtime_Error_Module__diagsEnabled__C)
                  00017be4    00000004     tivaRTSC_JS_pem4f.oem4f (.const:xdc_runtime_Error_Module__diagsIncluded__C)
                  00017be8    00000004     tivaRTSC_JS_pem4f.oem4f (.const:xdc_runtime_Error_Module__diagsMask__C)
                  00017bec    00000004     tivaRTSC_JS_pem4f.oem4f (.const:xdc_runtime_Error_Module__loggerFxn8__C)
                  00017bf0    00000004     tivaRTSC_JS_pem4f.oem4f (.const:xdc_runtime_Error_Module__loggerObj__C)
                  00017bf4    00000004     tivaRTSC_JS_pem4f.oem4f (.const:xdc_runtime_Error_policyFxn__C)
                  00017bf8    00000004     tivaRTSC_JS_pem4f.oem4f (.const:xdc_runtime_Error_raiseHook__C)
                  00017bfc    00000004     tivaRTSC_JS_pem4f.oem4f (.const:xdc_runtime_IGateProvider_Interface__BASE__C)
                  00017c00    00000004     tivaRTSC_JS_pem4f.oem4f (.const:xdc_runtime_IHeap_Interface__BASE__C)
                  00017c04    00000004     tivaRTSC_JS_pem4f.oem4f (.const:xdc_runtime_IModule_Interface__BASE__C)
                  00017c08    00000004     tivaRTSC_JS_pem4f.oem4f (.const:xdc_runtime_Log_L_error__C)
                  00017c0c    00000004     tivaRTSC_JS_pem4f.oem4f (.const:xdc_runtime_Memory_defaultHeapInstance__C)
                  00017c10    00000004     tivaRTSC_JS_pem4f.oem4f (.const:xdc_runtime_Startup_execImpl__C)
                  00017c14    00000004     tivaRTSC_JS_pem4f.oem4f (.const:xdc_runtime_Startup_maxPasses__C)
                  00017c18    00000004     tivaRTSC_JS_pem4f.oem4f (.const:xdc_runtime_Startup_sfxnRts__C)
                  00017c1c    00000004     tivaRTSC_JS_pem4f.oem4f (.const:xdc_runtime_Startup_sfxnTab__C)
                  00017c20    00000004     tivaRTSC_JS_pem4f.oem4f (.const:xdc_runtime_SysMin_bufSize__C)
                  00017c24    00000004     tivaRTSC_JS_pem4f.oem4f (.const:xdc_runtime_SysMin_outputFunc__C)
                  00017c28    00000004     tivaRTSC_JS_pem4f.oem4f (.const:xdc_runtime_System_Module__gateObj__C)
                  00017c2c    00000004     tivaRTSC_JS_pem4f.oem4f (.const:xdc_runtime_System_abortFxn__C)
                  00017c30    00000004     tivaRTSC_JS_pem4f.oem4f (.const:xdc_runtime_System_exitFxn__C)
                  00017c34    00000004     tivaRTSC_JS_pem4f.oem4f (.const:xdc_runtime_System_extendFxn__C)
                  00017c38    00000004     tivaRTSC_JS_pem4f.oem4f (.const:xdc_runtime_System_maxAtexitHandlers__C)
                  00017c3c    00000004     tivaRTSC_JS_pem4f.oem4f (.const:xdc_runtime_Text_charTab__C)
                  00017c40    00000004     tivaRTSC_JS_pem4f.oem4f (.const:xdc_runtime_Text_nameEmpty__C)
                  00017c44    00000004     tivaRTSC_JS_pem4f.oem4f (.const:xdc_runtime_Text_nameStatic__C)
                  00017c48    00000004     tivaRTSC_JS_pem4f.oem4f (.const:xdc_runtime_Text_nameUnknown__C)
                  00017c4c    00000004     tivaRTSC_JS_pem4f.oem4f (.const:xdc_runtime_Text_nodeTab__C)
                  00017c50    00000004     tivaRTSC_JS_pem4f.oem4f (.const:xdc_runtime_Text_visitRopeFxn__C)
                  00017c54    00000002     tivaRTSC_JS_pem4f.oem4f (.const:ti_sysbios_gates_GateMutex_Module__id__C)
                  00017c56    00000002     tivaRTSC_JS_pem4f.oem4f (.const:ti_sysbios_hal_Hwi_Module__id__C)
                  00017c58    00000002     tivaRTSC_JS_pem4f.oem4f (.const:ti_sysbios_heaps_HeapMem_Module__id__C)
                  00017c5a    00000002     tivaRTSC_JS_pem4f.oem4f (.const:ti_sysbios_knl_Clock_Module__id__C)
                  00017c5c    00000002     tivaRTSC_JS_pem4f.oem4f (.const:ti_sysbios_knl_Clock_Module__loggerDefined__C)
                  00017c5e    00000002     tivaRTSC_JS_pem4f.oem4f (.const:ti_sysbios_knl_Semaphore_Module__id__C)
                  00017c60    00000002     tivaRTSC_JS_pem4f.oem4f (.const:ti_sysbios_knl_Semaphore_Module__loggerDefined__C)
                  00017c62    00000002     tivaRTSC_JS_pem4f.oem4f (.const:ti_sysbios_knl_Swi_Module__id__C)
                  00017c64    00000002     tivaRTSC_JS_pem4f.oem4f (.const:ti_sysbios_knl_Swi_Module__loggerDefined__C)
                  00017c66    00000002     tivaRTSC_JS_pem4f.oem4f (.const:ti_sysbios_knl_Task_Module__id__C)
                  00017c68    00000002     tivaRTSC_JS_pem4f.oem4f (.const:ti_sysbios_knl_Task_Module__loggerDefined__C)
                  00017c6a    00000002     tivaRTSC_JS_pem4f.oem4f (.const:ti_sysbios_knl_Task_initStackFlag__C)
                  00017c6c    00000002     tivaRTSC_JS_pem4f.oem4f (.const:xdc_runtime_Core_Module__id__C)
                  00017c6e    00000002     tivaRTSC_JS_pem4f.oem4f (.const:xdc_runtime_Error_Module__loggerDefined__C)
                  00017c70    00000002     tivaRTSC_JS_pem4f.oem4f (.const:xdc_runtime_Error_maxDepth__C)
                  00017c72    00000002     tivaRTSC_JS_pem4f.oem4f (.const:xdc_runtime_Memory_Module__id__C)
                  00017c74    00000002     tivaRTSC_JS_pem4f.oem4f (.const:xdc_runtime_SysMin_flushAtExit__C)
                  00017c76    00000002     tivaRTSC_JS_pem4f.oem4f (.const:xdc_runtime_Text_charCnt__C)
                  00017c78    00000002     tivaRTSC_JS_pem4f.oem4f (.const:xdc_runtime_Text_isLoaded__C)
                  00017c7a    00000002     tivaRTSC_JS_pem4f.oem4f (.const:xdc_runtime_Text_registryModsLastId__C)
                  00017c7c    00000002     tivaRTSC_JS_pem4f.oem4f (.const:xdc_runtime_Text_unnamedModsLastId__C)

.cinit     0    00017c80    00000690     
                  00017c80    00000657     (.cinit..data.load) [load image, compression = rle]
                  000182d7    00000001     --HOLE-- [fill = 0]
                  000182d8    0000000c     (__TI_handler_table)
                  000182e4    00000004     --HOLE-- [fill = 0]
                  000182e8    00000008     (.cinit..bss.load) [load image, compression = zero_init]
                  000182f0    00000008     (.cinit..vecs.load) [load image, compression = zero_init]
                  000182f8    00000018     (__TI_cinit_table)

.vecs      0    20000000    00000360     UNINITIALIZED
                  20000000    00000360     tivaRTSC_JS_pem4f.oem4f (.vecs)

.bss       0    20000380    0000f9dc     UNINITIALIZED
                  20000380    00005000     tivaRTSC_JS_pem4f.oem4f (.bss:ti_sysbios_heaps_HeapMem_Instance_State_0_buf__A)
                  20005380    000048a8     tivaRTSC_JS_pem4f.oem4f (.bss:NDK_MMBUFFER)
                  20009c28    0000004c     stk.aem4f : icmp.oem4f (.bss:_ICMPIn)
                  20009c74    0000000c     (.common:PBMQ_free)
                  20009c80    00003ef8     tivaRTSC_JS_pem4f.oem4f (.bss:NDK_PACKETMEM)
                  2000db78    00001100     tivaRTSC_JS_pem4f.oem4f (.bss:taskStackSection)
                  2000ec78    00000440     EK_TM4C1294XL.obj (.bss:uartTivaObjects)
                  2000f0b8    00000360     tivaRTSC_JS_pem4f.oem4f (.bss:ti_sysbios_family_arm_m3_Hwi_dispatchTable)
                  2000f418    00000120     rtsv7M4_T_le_v4SPD16_eabi.lib : trgmsg.obj (.bss:__CIOBUF_)
                  2000f538    00000100     stk.aem4f : igmp.oem4f (.bss:igmp)
                  2000f638    000000b8               : tcp.oem4f (.bss:tcps)
                  2000f6f0    000000b4     netctrl_min_ipv4.aem4f : netsrv.oem4f (.bss:ipcfgcopy)
                  2000f7a4    000000a0     rtsv7M4_T_le_v4SPD16_eabi.lib : defs.obj (.bss:__TI_tmpnams)
                  2000f844    00000090     drivers_tivaware.aem4f : EMACSnow.oem4f (.bss:g_pRxDescriptors)
                  2000f8d4    00000090                            : EMACSnow.oem4f (.bss:g_pTxDescriptors)
                  2000f964    00000080     tivaRTSC_JS_pem4f.oem4f (.bss:xdc_runtime_SysMin_Module_State_0_outbuf__A)
                  2000f9e4    00000068     stk.aem4f : ip.oem4f (.bss:ips)
                  2000fa4c    00000060               : nimu.oem4f (.bss:nimu_mcb)
                  2000faac    0000004c               : icmp.oem4f (.bss:_ICMPOut)
                  2000faf8    00000040     drivers_tivaware.aem4f : EMACSnow.oem4f (.bss:EMACSnow_private)
                  2000fb38    00000038     EK_TM4C1294XL.obj (.bss:pwmTivaObjects)
                  2000fb70    00000028     stk.aem4f : vlan.oem4f (.bss:vlan_mcb)
                  2000fb98    00000024     netctrl_min_ipv4.aem4f : netsrv.oem4f (.bss:oscfgcopy)
                  2000fbbc    00000024     stk.aem4f : udp.oem4f (.bss:udps)
                  2000fbe0    0000001c     (.common:BlockCount)
                  2000fbfc    0000001c     (.common:BlockMax)
                  2000fc18    0000001c     (.common:PageCount)
                  2000fc34    0000001c     (.common:PageMax)
                  2000fc50    00000018     (.common:stkEvent)
                  2000fc68    00000014     (.common:pfnHook)
                  2000fc7c    00000010     (.common:igmpCount)
                  2000fc8c    00000010     (.common:raweths)
                  2000fc9c    00000010     (.common:raws)
                  2000fcac    0000000c     (.common:tpseudo)
                  2000fcb8    0000000c     (.common:upseudo)
                  2000fcc4    00000008     (.common:emacObjects)
                  2000fccc    00000008     (.common:parmbuf)
                  2000fcd4    00000004     (.common:IPCache)
                  2000fcd8    00000004     (.common:IPTrialAddress)
                  2000fcdc    00000004     (.common:LastCLKTime)
                  2000fce0    00000004     (.common:LastCLKValid)
                  2000fce4    00000004     (.common:NetHaltFlag)
                  2000fce8    00000004     (.common:NetReturnCode)
                  2000fcec    00000004     (.common:TimeMS)
                  2000fcf0    00000004     (.common:TimeS)
                  2000fcf4    00000004     (.common:TimeStart)
                  2000fcf8    00000004     (.common:_IGMPInDiscard)
                  2000fcfc    00000004     (.common:_IGMPInQuery)
                  2000fd00    00000004     (.common:_IGMPInQueryGroup)
                  2000fd04    00000004     (.common:_IGMPInResponse)
                  2000fd08    00000004     (.common:_IGMPOutResponse)
                  2000fd0c    00000004     (.common:g_ulStatus)
                  2000fd10    00000004     (.common:hEvent)
                  2000fd14    00000004     (.common:hTimer$1)
                  2000fd18    00000004     (.common:hTimer$1)
                  2000fd1c    00000004     (.common:pwm_1)
                  2000fd20    00000004     (.common:pwm_2)
                  2000fd24    00000004     (.common:pwm_3)
                  2000fd28    00000004     (.common:pwm_4)
                  2000fd2c    00000004     (.common:pwm_5)
                  2000fd30    00000004     (.common:pwm_6)
                  2000fd34    00000004     (.common:raweth_pcb)
                  2000fd38    00000004     (.common:ti_sysbios_knl_Task_Instance_State_0_hookEnv__A)
                  2000fd3c    00000004     (.common:ti_sysbios_knl_Task_Instance_State_1_hookEnv__A)
                  2000fd40    00000004     (.common:ti_sysbios_knl_Task_Instance_State_2_hookEnv__A)
                  2000fd44    00000004     (.common:uart_2)
                  2000fd48    00000004     (.common:uart_3)
                  2000fd4c    00000004     (.common:uart_4)
                  2000fd50    00000004     (.common:uart_5)
                  2000fd54    00000004     (.common:uart_6)
                  2000fd58    00000004     (.common:uart_7)

.data      0    2000fd5c    00000ae0     UNINITIALIZED
                  2000fd5c    000001bc     tivaRTSC_JS_pem4f.oem4f (.data)
                  2000ff18    000000f0     rtsv7M4_T_le_v4SPD16_eabi.lib : defs.obj (.data:_ftable)
                  20010008    000000e4     tivaRTSC_JS_pem4f.oem4f (.data:ti_sysbios_knl_Task_Object__table__V)
                  200100ec    000000d0     rtsv7M4_T_le_v4SPD16_eabi.lib : lowlev.obj (.data)
                  200101bc    000000b4     stk.aem4f : exec.oem4f (.data:_ipcfg)
                  20010270    00000080     tivaRTSC_JS_pem4f.oem4f (.data:ti_sysbios_knl_Swi_Module_State_0_readyQ__A)
                  200102f0    00000080     tivaRTSC_JS_pem4f.oem4f (.data:ti_sysbios_knl_Task_Module_State_0_readyQ__A)
                  20010370    0000004d     nettool_ipv4.aem4f : dhcptags.oem4f (.data:DHCPTypeCode)
                  200103bd    00000003     --HOLE--
                  200103c0    00000044     tivaRTSC_JS_pem4f.oem4f (.data:ti_sysbios_knl_Task_Module__state__V)
                  20010404    00000040     netctrl_min_ipv4.aem4f : netsrv.oem4f (.data:CloseOrder)
                  20010444    00000040                            : netsrv.oem4f (.data:OpenOrder)
                  20010484    00000040     tivaRTSC_JS_pem4f.oem4f (.data:ti_sysbios_family_arm_lm4_Timer_Module_State_0_device__A)
                  200104c4    00000040     tivaRTSC_JS_pem4f.oem4f (.data:ti_sysbios_family_arm_lm4_Timer_Object__table__V)
                  20010504    00000038     tivaRTSC_JS_pem4f.oem4f (.data:ti_sysbios_gates_GateMutex_Object__table__V)
                  2001053c    00000034     stk.aem4f : tcptime.oem4f (.data:tcp_backoff)
                  20010570    00000034     tivaRTSC_JS_pem4f.oem4f (.data:ti_sysbios_family_arm_m3_Hwi_Module__state__V)
                  200105a4    00000031     drivers_tivaware.aem4f : EMACSnow.oem4f (.data)
                  200105d5    00000003     --HOLE--
                  200105d8    00000030     stk.aem4f : exec.oem4f (.data:tasks)
                  20010608    00000030     tivaRTSC_JS_pem4f.oem4f (.data:ti_sysbios_knl_Swi_Object__table__V)
                  20010638    0000002c     tivaRTSC_JS_pem4f.oem4f (.data:ti_sysbios_knl_Clock_Module__state__V)
                  20010664    00000028     stk.aem4f : rtc.oem4f (.data)
                  2001068c    00000024     os.aem4f : ossys.oem4f (.data:_oscfg)
                  200106b0    00000024              : mem.oem4f (.data)
                  200106d4    00000024     tivaRTSC_JS_pem4f.oem4f (.data:ti_sysbios_BIOS_Module__state__V)
                  200106f8    0000001c     netctrl_min_ipv4.aem4f : netctrl.oem4f (.data)
                  20010714    00000018     drivers_tivaware.aem4f : PWMTiva.oem4f (.data)
                  2001072c    00000018     os.aem4f : task.oem4f (.data)
                  20010744    00000018     stk.aem4f : sockpcb.oem4f (.data)
                  2001075c    00000014               : rtable.oem4f (.data)
                  20010770    00000010     rtsv7M4_T_le_v4SPD16_eabi.lib : defs.obj (.data)
                  20010780    00000010     stk.aem4f : igmp.oem4f (.data)
                  20010790    0000000b               : tcpout.oem4f (.data)
                  2001079b    00000001     --HOLE--
                  2001079c    00000008     EK_TM4C1294XL.obj (.data)
                  200107a4    00000008     EK_TM4C1294XL.obj (.data:NIMUDeviceTable)
                  200107ac    00000008     drivers_tivaware.aem4f : GPIOTiva.oem4f (.data)
                  200107b4    00000008     netctrl_min_ipv4.aem4f : netsrv.oem4f (.data)
                  200107bc    00000008     rtsv7M4_T_le_v4SPD16_eabi.lib : _lock.obj (.data)
                  200107c4    00000008                                   : exit.obj (.data)
                  200107cc    00000008     stk.aem4f : exec.oem4f (.data)
                  200107d4    00000008               : icmp.oem4f (.data)
                  200107dc    00000008               : ip.oem4f (.data)
                  200107e4    00000008               : ipin.oem4f (.data)
                  200107ec    00000008               : lli.oem4f (.data)
                  200107f4    00000008               : tcp.oem4f (.data)
                  200107fc    00000008               : timer.oem4f (.data)
                  20010804    00000006               : lliout.oem4f (.data)
                  2001080a    00000002     --HOLE--
                  2001080c    00000004     drivers_tivaware.aem4f : EMAC.oem4f (.data)
                  20010810    00000004                            : PWM.oem4f (.data)
                  20010814    00000004                            : UART.oem4f (.data)
                  20010818    00000004     hal_timer_bios.aem4f : lltimer.oem4f (.data)
                  2001081c    00000004     nettool_ipv4.aem4f : config.oem4f (.data)
                  20010820    00000004     rtsv7M4_T_le_v4SPD16_eabi.lib : fopen.obj (.data)
                  20010824    00000004                                   : stkdepth_vars.obj (.data)
                  20010828    00000004     stk.aem4f : bind.oem4f (.data)
                  2001082c    00000004               : ipfrag.oem4f (.data)
                  20010830    00000004               : lliin.oem4f (.data)
                  20010834    00000004               : node.oem4f (.data)
                  20010838    00000004               : pbm.oem4f (.data)

.stack     0    2001083c    00000800     UNINITIALIZED
                  2001083c    00000800     --HOLE--


LINKER GENERATED COPY TABLES

__TI_cinit_table @ 000182f8 records: 3, size/record: 8, table size: 24
	.data: load addr=00017c80, load size=00000657 bytes, run addr=2000fd5c, run size=00000ae0 bytes, compression=rle
	.bss: load addr=000182e8, load size=00000008 bytes, run addr=20000380, run size=0000f9dc bytes, compression=zero_init
	.vecs: load addr=000182f0, load size=00000008 bytes, run addr=20000000, run size=00000360 bytes, compression=zero_init


LINKER GENERATED HANDLER TABLE

__TI_handler_table @ 000182d8 records: 3, size/record: 4, table size: 12
	index: 0, handler: __TI_zero_init
	index: 1, handler: __TI_decompress_rle24
	index: 2, handler: __TI_decompress_none


GLOBAL SYMBOLS: SORTED ALPHABETICALLY BY Name 

address    name
--------   ----
00014445   BindFindByHost
000146f9   BindFindByIF
00013c8d   BindFindByNet
00010fbd   BindFree
000152a1   BindGetFirst
00015503   BindGetIF
00014017   BindGetIFByDBCast
00014d31   BindGetIP
00015507   BindGetNext
000150bd   BindIF2IPHost
000150cd   BindIFNet2IPHost
00014df7   BindIPHost2IF
000076b1   BindNew
2000fbe0   BlockCount
2000fbfc   BlockMax
00012261   C$$EXIT
000108a7   C$$IO$$
000077f5   CfgAddEntry
00011385   CfgEntryDeRef
000128bf   CfgEntryGetData
00014355   CfgEntryInfo
00014377   CfgEntryRef
0000d9a9   CfgExecute
0001025d   CfgFree
0000eb3d   CfgGetEntry
000105dd   CfgGetEntryCnt
0001333d   CfgGetImmediate
0000ebb9   CfgGetNextEntry
00011aa9   CfgNew
0000da3d   CfgRemoveEntry
000152ad   CfgSetDefault
00010b19   CfgSetExecuteOrder
00012ffd   CfgSetService
000173e8   Code2Err
00012789   DHCPClose
00007935   DHCPOpen
0000faed   DbgPrintf
2000fd88   DomainName
00008925   EK_TM4C1294XL_initEMAC
00011ffd   EK_TM4C1294XL_initGPIO
0000c75d   EK_TM4C1294XL_initGeneral
0000e185   EK_TM4C1294XL_initPWM
00007a75   EK_TM4C1294XL_initUART
00013531   EMACAddrSet
00012c7d   EMACConfigGet
00013031   EMACConfigSet
000150dd   EMACFrameFilterSet
0000f011   EMACInit
00013065   EMACIntClear
000128fb   EMACIntDisable
00012c09   EMACIntEnable
000139a7   EMACIntStatus
00011015   EMACPHYConfigSet
00013f0d   EMACPHYRead
00013f33   EMACPHYWrite
00014d47   EMACReset
000154b5   EMACRxDMADescriptorListSet
00014d5d   EMACRxEnable
0000c099   EMACSnow_InitDMADescriptors
00005e8d   EMACSnow_NIMUInit
0001403d   EMACSnow_emacPoll
00014a49   EMACSnow_emacSend
0000a931   EMACSnow_emacStart
0000fb59   EMACSnow_emacStop
0001524d   EMACSnow_emacioctl
000179bc   EMACSnow_fxnTable
0000f68d   EMACSnow_hwiIntFxn
00014715   EMACSnow_init
00013cb5   EMACSnow_isLinkUp
00013cdd   EMACSnow_pkt_service
0000ecb1   EMACSnow_processPhyInterrupt
000154bb   EMACTxDMADescriptorListSet
0001544d   EMACTxDMAPollDemand
00014d73   EMACTxEnable
000178d4   EMAC_config
00013099   EMAC_init
0001474d   ExecClose
000150ed   ExecHRef
0001525b   ExecLowResource
0000d3a1   ExecOpen
00014085   ExecTimer
000139d3   FdSignalEvent
0001063d   FdWaitEvent
00014e0d   FlashUserGet
00013bb9   GPIODirModeSet
000086c5   GPIOPadConfigSet
00011b39   GPIOPinConfigure
00014fb1   GPIOPinTypeEthernetLED
00014a61   GPIOPinTypeGPIOOutput
00014fc3   GPIOPinTypePWM
00014fd5   GPIOPinTypeUART
000175ac   GPIO_config
000140a9   GPIO_init
2000fd84   GatewayIP
00003b99   HOSTclock
00003b61   HOSTclose
00003b23   HOSTgetenv
00003ac7   HOSTlseek
00003a75   HOSTopen
00003a29   HOSTread
000039cb   HOSTrename
00003991   HOSTtime
00003959   HOSTunlink
0000390d   HOSTwrite
000127c7   ICMPChecksum
000087f5   ICMPGenPacket
00004a65   ICMPInput
0000bca1   ICMPSendRtAdv
0000688d   IGMPInput
0000ed2d   IGMPJoin
000113d9   IGMPLeave
0000f6fd   IGMPLeaveHostGroup
0000dbf9   IGMPMsg
00013d05   IGMPTestGroup
000130cd   IPChecksum
0000d749   IPGetRoute
0000e6bd   IPMsg
00004385   IPReasm
00012041   IPReasmFree
00012cb5   IPReasmTimeout
00014a79   IPRtChange
00002c39   IPRxPacket
00002831   IPTxPacket
00004383   LED_TOGGLE
00013be3   LLIFree
0000ad05   LLIGenArpPacket
00012085   LLIGetValidTime
00011b81   LLIMsg
0000e73d   LLINew
000063b1   LLIRxPacket
000061fd   LLITxIpPacket
00012589   LLIValidateRoute
2000fd7c   LocalIPAddr
2000fd80   LocalIPMask
00014465   NC_BootComplete
000150fd   NC_IPUpdate
000072b5   NC_NetStart
00014e21   NC_NetStop
00013d2d   NC_SystemClose
0000d7e1   NC_SystemOpen
0001157d   NDK_bind
000115cd   NDK_connect
00013591   NDK_hookCreate
00014e35   NDK_hookExit
000152b9   NDK_hookInit
0000fa0d   NDK_recv
0000f089   NDK_sendto
0000eda9   NDK_setsockopt
0000ff1f   NDK_socket
00014769   NDK_sprintf
0001550b   NDK_vsprintf
0000d911   NIMUAddEthernetHeader
00014785   NIMUAddHeader
00013d55   NIMUCreatePacket
200107a4   NIMUDeviceTable
000140cd   NIMUFindByIndex
00013101   NIMUFindByName
0001510d   NIMUGetRsvdSizeInfo
00013135   NIMUInit
000097d5   NIMUIoctl
00013d7d   NIMUPacketService
00013a2d   NIMUPacketServiceCheck
0000b7ad   NIMUReceivePacket
0000ee25   NIMURegister
00014e49   NIMUSendPacket
000152c5   NIMUSetRsvdSizeInfo
0000f101   NIMUShutdown
0001069d   NIMUUnregister
0000e7bd   NS_BootTask
000135c1   NS_PreBoot
000061fb   NatMsg
0000b6d5   NodeAdd
000117fd   NodeDeRef
000106fd   NodeFind
00012ced   NodeGetRt
0001550f   NodeSetRt
000098e5   NodeTreeFree
0000fbc5   NodeTreeNew
00011bc9   NodeWalk
000152d1   NotifyLowResource
0001184d   NtAddNetwork
00011f29   NtIfIdx2Ip
00014e5d   NtRemoveNetwork
000154e5   OEMSysCritOff
00015355   OEMSysCritOn
00013c0d   PBMQ_deq
000102c1   PBMQ_enq
20009c74   PBMQ_free
0000e83d   PBM_alloc
000152dd   PBM_close
000125c9   PBM_copy
0000eea1   PBM_free
0000ff89   PBM_open
200106b0   PITCount
200106b8   PITHigh
200106b4   PITUsed
00014e71   PWMClockSet
00014399   PWMGenConfigure
000152e9   PWMGenDisable
000152f5   PWMGenEnable
00014fe7   PWMGenPeriodGet
0001511d   PWMGenPeriodSet
00014ff9   PWMOutputInvert
0001500b   PWMOutputState
00014645   PWMPulseWidthSet
00017796   PWMTiva_MAX_MATCH_VALUE
00017794   PWMTiva_MAX_PRESCALAR
0000fde1   PWMTiva_close
0000e429   PWMTiva_control
00017778   PWMTiva_fxnTable
000143bb   PWMTiva_getPeriodCounts
00014663   PWMTiva_getPeriodMicroSecs
000135f1   PWMTiva_init
00006ba1   PWMTiva_open
0000a835   PWMTiva_setDuty
0001512d   PWM_Params_init
00017388   PWM_config
0001799c   PWM_defaultParams
00012d25   PWM_init
00014a91   PWM_open
2000fc18   PageCount
2000fc34   PageMax
00013a59   PipeClose
0000a53d   PipeRecv
000144a5   RTCAddHook
0001075d   RTCMsg
000144c5   RTCRemoveHook
00006d11   RTCReport
0000f449   RawEthRxPacket
00013f59   RawEthSockClose
0000bfd1   RawEthSockNew
000138c1   RawEthSockNotify
0001142d   RawEthSockPcbAttach
00014aa9   RawEthSockPcbCleanup
000120c9   RawEthSockPcbDetach
000140f1   RawEthSockPcbFind
00014e85   RawEthSockPcbInit
00015513   RawEthSockPrAttach
00015517   RawEthSockPrDetach
0000cc55   RawEthSockSet
000099f5   RawInput
0000e8bd   RawOutput
0001210d   RouteMsg
00009c11   RtCreate
0001336f   RtDeRef
00009d1d   RtFind
00010e55   RtRedirect
000109fd   RtRemove
000138ef   RtSetFailure
00013f7f   RtSetTimeout
00012975   RtWalkBegin
00012151   RtWalkEnd
0000f5a5   RtWalkNext
00013621   SBFlush
0001391d   SBFree
000104b5   SBNew
00006fe9   SBRead
000133a1   SBSetMax
0000b289   SBWrite
UNDEFED    SHT$$INIT_ARRAY$$Base
UNDEFED    SHT$$INIT_ARRAY$$Limit
0001111d   SemCreate
0000f619   SemCreateBinary
00015301   SemDelete
0001551b   SemPend
0001551f   SemPost
00015523   SemReset
00013651   SockBind
00013681   SockCleanPcb
0000aee5   SockClose
00007151   SockConnect
0000cd05   SockCreatePacket
000119c9   SockDisconnect
000133d3   SockIntAbort
000066f9   SockNew
0000948d   SockNotify
00013a85   SockPcbAttach
0000b959   SockPcbBind
00014139   SockPcbCleanup
0000f4bd   SockPcbConnect
0000dc89   SockPcbCtlError
00012609   SockPcbDetach
00008dcd   SockPcbResolve
00011c11   SockPcbResolveChain
00012649   SockPcbRtChange
0001501d   SockPrAttach
000136b1   SockPrCtlError
000147a1   SockPrDetach
00005505   SockRecv
00007f75   SockSend
00003ea1   SockSet
0001502f   SockSetOOBData
00014929   SockSetOOBMark
0000f7dd   SockShutdown
00010bd1   SockSpawnAbort
00011899   SockValidateRoute
000154c1   SysCtlDelay
00014e99   SysCtlPWMClockSet
00013169   SysCtlPeripheralEnable
00012d5d   SysCtlPeripheralReady
0001166d   SysCtlPeripheralReset
200100a0   TSK_idle
0001545d   TaskBlock
00012d95   TaskCreate
000147bd   TaskDestroy
00008ca5   TaskExit
0000aa29   TaskGetEnv
00015527   TaskSelf
0000b0c1   TaskSetEnv
0001552b   TaskSetPri
000050f9   TaskSleep
000107bd   TcpChecksum
00012dcd   TcpClose
00011c59   TcpDrop
000095a5   TcpGenPacket
00000efd   TcpInput
00001b6d   TcpOutput
0000e4ad   TcpPrAttach
000129b1   TcpPrConnect
00012843   TcpPrCtlError
000116bd   TcpPrDetach
00012689   TcpPrDisconnect
0000fe4b   TcpPrInherit
000154c7   TcpPrRecv
00013405   TcpPrSend
00012481   TcpPrSendOOB
0000ba2d   TcpPrSetOption
000129ed   TcpSetPersist
00014b99   TcpTimeoutAdd
00007bb5   TcpTimeoutCheck
0000c985   TcpTimeoutKeep
00011481   TcpTimeoutPersist
000147d9   TcpTimeoutRemove
0000b1a9   TcpTimeoutRexmt
0000f3d1   TcpTimeoutSackRexmt
0001415d   TcpTimeoutWait2
00010eaf   TcpValidateMetrics
0000f179   TcpXmitTimer
00014ead   TimerFree
00012e05   TimerHSTick
00011a15   TimerNew
000153fd   UARTCharGet
00015269   UARTCharGetNonBlocking
00015407   UARTCharPut
00015277   UARTCharPutNonBlocking
000124c3   UARTConfigSetExpClk
000147f5   UARTDisable
00014ec1   UARTEnable
000154cd   UARTFIFOLevelSet
0001552f   UARTIntClear
00015411   UARTIntDisable
00015465   UARTIntEnable
0001541b   UARTIntStatus
0001319d   UARTTiva_close
000154d3   UARTTiva_control
00017604   UARTTiva_fxnTable
0001546d   UARTTiva_init
00007cf5   UARTTiva_open
0000fc31   UARTTiva_read
00013437   UARTTiva_readCancel
00010191   UARTTiva_readPolling
0000fc9d   UARTTiva_write
00013469   UARTTiva_writeCancel
000126c9   UARTTiva_writePolling
00014bb1   UART_Params_init
000172b0   UART_config
0001767c   UART_defaultParams
00012e3d   UART_init
00014bc9   UART_open
000100c1   UdpChecksum
00004ed5   UdpInput
00008b7d   UdpOutput
0000c5e5   VLANDeinit
00013e1d   VLANInit
00010c2d   VLANReceivePacket
00015065   _Dclass
000122a5   _Dtest
20009c28   _ICMPIn
200107d4   _ICMPInErrors
2000faac   _ICMPOut
200107d8   _ICMPOutErrors
20010788   _IGMPForceVersion1
2000fcf8   _IGMPInDiscard
2000fcfc   _IGMPInQuery
2000fd00   _IGMPInQueryGroup
2000fd04   _IGMPInResponse
2000fd08   _IGMPOutResponse
200107dc   _IPExecuting
2001082c   _IPReasmPtr
00011ca1   _LLIExpListInsert
00013e45   _LLIExpListRemove
0000c8cd   _LLITimeoutCheck
00013e6d   _LLITimeoutFlush
00011ce9   _RtExpListInsert
00013e95   _RtExpListRemove
0000feb5   _RtNodeInsert
00012c43   _RtNodeRemove
0000714f   _TaskInit
0000858f   _TaskShutdown
00000000   __ASM__
2000f418   __CIOBUF_
00000086   __ISA__
00000099   __PLAT__
2001103c   __STACK_END
00000800   __STACK_SIZE
20010a3c   __STACK_TOP
000000ba   __TARG__
000182f8   __TI_CINIT_Base
00018310   __TI_CINIT_Limit
000182d8   __TI_Handler_Table_Base
000182e4   __TI_Handler_Table_Limit
00000001   __TI_args_main
0000d261   __TI_auto_init
00005d95   __TI_cleanup
200107c4   __TI_cleanup_ptr
0000d879   __TI_closefile
00015285   __TI_decompress_none
000154df   __TI_decompress_rle24
0000c469   __TI_doflush
200107c8   __TI_dtors_ptr
20010770   __TI_ft_end
00000bf3   __TI_printfi
0000cf73   __TI_rd_ok
000108ab   __TI_readmsg
00000000   __TI_static_base__
2000f7a4   __TI_tmpnams
0001087d   __TI_writemsg
0000cf11   __TI_wrt_ok
00015041   __TI_zero_init
000000e0   __TRDR__
0000e31b   __aeabi_cdcmpeq
0000e31b   __aeabi_cdcmple
0000e3a1   __aeabi_cdrcmple
00011d79   __aeabi_d2iz
0000604f   __aeabi_dadd
00008459   __aeabi_ddiv
0000a63b   __aeabi_dmul
00006045   __aeabi_dsub
00013979   __aeabi_i2d
00014c41   __aeabi_lmul
0000f359   __aeabi_memclr
0000f359   __aeabi_memclr4
0000f359   __aeabi_memclr8
0000d575   __aeabi_memcpy
0000d575   __aeabi_memcpy4
0000d575   __aeabi_memcpy8
0000f35b   __aeabi_memset
0000f35b   __aeabi_memset4
0000f35b   __aeabi_memset8
2001077c   __aeabi_stderr
20010774   __aeabi_stdin
20010778   __aeabi_stdout
00012547   __aeabi_uidivmod
000058f5   __aeabi_uldivmod
ffffffff   __binit__
ffffffff   __c_args__
2001083c   __stack
000154d9   __xdc__init
2000ff14   __xdc__init__addr
00014c29   _args_main
00011175   _c_int00
00016ed8   _ctypes_
2000ff18   _ftable
200101bc   _ipcfg
00015533   _llSerialInit
0000a33b   _llSerialServiceCheck
0000a737   _llSerialShutdown
00012a65   _llTimerInit
0001530d   _llTimerShutdown
0000a92f   _llUserLedInit
0000afd3   _llUserLedShutdown
200107bc   _lock
0000dd19   _mmInit
00014ef7   _nop
2001068c   _oscfg
00014eef   _register_lock
00014ee9   _register_unlock
200107c0   _unlock
00012265   abort
0000355b   add_device
00011931   atoi
ffffffff   binit
00003509   close
0001221d   copy_in
00010f09   dhcpBuildDecline
000131d1   dhcpBuildDiscover
0001081d   dhcpBuildOptions
0000de39   dhcpBuildRequest
0000f84d   dhcpDecodeType
00012e75   dhcpOptionsClear
0000a239   dhcpPacketProcess
00013ebd   dhcpPacketReceive
000136e1   dhcpPacketSend
00014be1   dhcpSocketClose
0000b365   dhcpSocketOpen
0000b5f9   dhcpState
0000bf05   dhcpVerifyMessage
000179a8   emacHWAttrs
2000fcc4   emacObjects
200105a4   enablePrefetch
0001226d   exit
0000d8df   fclose
0000eabd   fdClose
00012505   fdCloseSession
00014681   fdError
0000f1f1   fdOpenSession
00014d89   fdint_freefdt
00014943   fdint_getfdt
000118e5   fdint_lockfd
00015425   fdint_signalevent
0001542f   fdint_signaltimeout
00012881   fdint_unlockfd
00012ead   fdint_waitevent
0000c4b5   fflush
00005deb   fopen
0000d4d9   fputc
00008591   fputs
00014bf9   free
00005dc1   freopen
00010325   fseek
2000fd0c   g_ulStatus
00017238   gpioHWAttrs
00015053   inet_addr
0000a43d   inet_aton
0000f269   inet_pton
2000f9e4   ips
00014c11   list_add
00015537   list_get_head
0001553b   list_get_next
0001469f   list_remove
00013711   list_remove_node
00009e29   llEnter
0000f2e1   llExit
0000b0bf   llSerialService
00015325   llTimerGetStartTime
000121d9   llTimerGetTime
00010129   llTimerTick
000034e5   lseek
00010f63   ltoa
2001079e   macAddress
00007409   main
20010824   main_func_sp
0001394b   malloc
00014811   memccpy
00014d9f   memchr
0000d575   memcpy
0000f361   memset
00006561   mmAlloc
0000dda9   mmBulkAlloc
0000e531   mmBulkFree
000114d5   mmCopy
0000e9bd   mmFree
00012709   mmZeroInit
2000fa4c   nimu_mcb
00003437   open
200105a8   phyCounter
0000f8c5   printf
20010664   pstrMsgName
200107f8   ptTimeFirst
0000d55d   putc
0000d561   putchar
0000869d   puts
0001743c   pwmTivaHWAttrs
2000fb38   pwmTivaObjects
2000fd1c   pwm_1
2000fd20   pwm_2
2000fd24   pwm_3
2000fd28   pwm_4
2000fd2c   pwm_5
2000fd30   pwm_6
2000fd34   raweth_pcb
2000fc8c   raweths
2000fc9c   raws
00003413   read
00003389   remove
000033eb   remove_device
000033ad   rename
000096bd   roveCatch_NdkErrors
0000afd5   roveDeviceTemplateThread
000178d0   roveDeviceTemplateThreadTask
0000fd09   roveGetStructId_ByteCnt
00004115   roveHorizon_Recv
00011ee1   rovePWM_Init
00010d9d   rovePrintf_ByteBuffer
00009371   roveTCP_Connect
00011d31   roveTCP_Recv
000111cd   roveUART_Init
0000b441   setvbuf
2000fc50   stkEvent
00014db5   strchr
00014c59   strcmp
0001513d   strcpy
00014efd   strlen
00013741   strncpy
200107f4   tcp_iss
2000f638   tcps
000179f4   ti_catalog_arm_cortexm4_tiva_ce_Boot_A_mustNotUseEnhancedClockMode__C
000179f8   ti_catalog_arm_cortexm4_tiva_ce_Boot_Module__diagsEnabled__C
000179fc   ti_catalog_arm_cortexm4_tiva_ce_Boot_Module__diagsIncluded__C
00017a00   ti_catalog_arm_cortexm4_tiva_ce_Boot_Module__diagsMask__C
00016db6   ti_catalog_arm_cortexm4_tiva_ce_Boot_Module__id__C
000150ad   ti_catalog_arm_cortexm4_tiva_ce_Boot_init__I
00005301   ti_catalog_arm_cortexm4_tiva_ce_Boot_sysCtlClockFreqSetI__I
0000dad1   ti_catalog_arm_cortexm4_tiva_ce_Boot_sysCtlClockFreqSet__E
2000fd78   ti_ndk_config_Global_HostName
2000fd5c   ti_ndk_config_Global_Id2Size
000178c4   ti_ndk_config_Global_largest
000178c8   ti_ndk_config_Global_numFrameBuf
20009c80   ti_ndk_config_Global_pBufMem
2000d880   ti_ndk_config_Global_pHdrMem
20005380   ti_ndk_config_Global_pit
20005428   ti_ndk_config_Global_pitBuffer
000178bc   ti_ndk_config_Global_rawPageCount
000178b8   ti_ndk_config_Global_rawPageSize
000178cc   ti_ndk_config_Global_sizeFrameBuf
000178c0   ti_ndk_config_Global_smallest
00008ef1   ti_ndk_config_Global_stackThread
0001482d   ti_ndk_config_global_taskCreateHook
00014f25   ti_ndk_config_global_taskExitHook
0000b51d   ti_ndk_config_ip_init
0000df55   ti_ndk_config_tcp_init
00013fa5   ti_ndk_config_udp_init
200106d4   ti_sysbios_BIOS_Module__state__V
0001553f   ti_sysbios_BIOS_RtsGateProxy_enter__E
00015543   ti_sysbios_BIOS_RtsGateProxy_leave__E
0001555b   ti_sysbios_BIOS_RtsGateProxy_query__E
00013771   ti_sysbios_BIOS_atExitFunc__I
000141c9   ti_sysbios_BIOS_errorRaiseHook__I
00014dcb   ti_sysbios_BIOS_exitFunc__I
0001514d   ti_sysbios_BIOS_getCpuFreq__E
00015331   ti_sysbios_BIOS_getThreadType__E
0000baff   ti_sysbios_BIOS_nullFunc__I
000141ed   ti_sysbios_BIOS_registerRTSLock__I
00014211   ti_sysbios_BIOS_removeRTSLock__I
00014849   ti_sysbios_BIOS_rtsLock__I
00014c71   ti_sysbios_BIOS_rtsUnlock__I
0001515d   ti_sysbios_BIOS_setThreadType__E
00014235   ti_sysbios_BIOS_startFunc__I
0001516d   ti_sysbios_BIOS_start__E
20010484   ti_sysbios_family_arm_lm4_Timer_Module_State_0_device__A
2000fdd4   ti_sysbios_family_arm_lm4_Timer_Module_State_0_handles__A
2000fdcc   ti_sysbios_family_arm_lm4_Timer_Module__root__V
00014c89   ti_sysbios_family_arm_lm4_Timer_Module__startupDone__F
00014c89   ti_sysbios_family_arm_lm4_Timer_Module__startupDone__S
2000fdf4   ti_sysbios_family_arm_lm4_Timer_Module__state__V
00010c89   ti_sysbios_family_arm_lm4_Timer_Module_startup__E
200104c4   ti_sysbios_family_arm_lm4_Timer_Object__table__V
00017a04   ti_sysbios_family_arm_lm4_Timer_enableFunc__C
0000d069   ti_sysbios_family_arm_lm4_Timer_enableTimers__I
0000cfbd   ti_sysbios_family_arm_lm4_Timer_enableTiva__I
0001533d   ti_sysbios_family_arm_lm4_Timer_getMaxTicks__E
000108dd   ti_sysbios_family_arm_lm4_Timer_isrStub__E
0001547d   ti_sysbios_family_arm_lm4_Timer_masterDisable__I
00015547   ti_sysbios_family_arm_lm4_Timer_masterEnable__I
00017a08   ti_sysbios_family_arm_lm4_Timer_numTimerDevices__C
000045d1   ti_sysbios_family_arm_lm4_Timer_start__E
00017a0c   ti_sysbios_family_arm_lm4_Timer_startupNeeded__C
00012749   ti_sysbios_family_arm_lm4_Timer_startup__E
000122e9   ti_sysbios_family_arm_lm4_Timer_stop__E
00017a10   ti_sysbios_family_arm_m3_Hwi_E_NMI__C
00017a14   ti_sysbios_family_arm_m3_Hwi_E_alreadyDefined__C
00017a18   ti_sysbios_family_arm_m3_Hwi_E_busFault__C
00017a1c   ti_sysbios_family_arm_m3_Hwi_E_debugMon__C
00017a20   ti_sysbios_family_arm_m3_Hwi_E_hardFault__C
00017a24   ti_sysbios_family_arm_m3_Hwi_E_memFault__C
00017a28   ti_sysbios_family_arm_m3_Hwi_E_noIsr__C
00017a2c   ti_sysbios_family_arm_m3_Hwi_E_reserved__C
00017a30   ti_sysbios_family_arm_m3_Hwi_E_svCall__C
00017a34   ti_sysbios_family_arm_m3_Hwi_E_usageFault__C
0001495d   ti_sysbios_family_arm_m3_Hwi_Handle__label__S
00013ee5   ti_sysbios_family_arm_m3_Hwi_Instance_finalize__E
0000d301   ti_sysbios_family_arm_m3_Hwi_Instance_init__E
00017a38   ti_sysbios_family_arm_m3_Hwi_LD_end__C
00017a3c   ti_sysbios_family_arm_m3_Hwi_LM_begin__C
2000fe20   ti_sysbios_family_arm_m3_Hwi_Module_State_0_excActive__A
2000fe24   ti_sysbios_family_arm_m3_Hwi_Module_State_0_excContext__A
2000fe28   ti_sysbios_family_arm_m3_Hwi_Module_State_0_excStack__A
00017a40   ti_sysbios_family_arm_m3_Hwi_Module__diagsEnabled__C
00017a44   ti_sysbios_family_arm_m3_Hwi_Module__diagsIncluded__C
00017a48   ti_sysbios_family_arm_m3_Hwi_Module__diagsMask__C
00016fda   ti_sysbios_family_arm_m3_Hwi_Module__id__C
0001750e   ti_sysbios_family_arm_m3_Hwi_Module__loggerDefined__C
00017a4c   ti_sysbios_family_arm_m3_Hwi_Module__loggerFxn1__C
00017a50   ti_sysbios_family_arm_m3_Hwi_Module__loggerFxn8__C
00017a54   ti_sysbios_family_arm_m3_Hwi_Module__loggerObj__C
2000fe00   ti_sysbios_family_arm_m3_Hwi_Module__root__V
00014ca1   ti_sysbios_family_arm_m3_Hwi_Module__startupDone__F
00014ca1   ti_sysbios_family_arm_m3_Hwi_Module__startupDone__S
20010570   ti_sysbios_family_arm_m3_Hwi_Module__state__V
0000c2e5   ti_sysbios_family_arm_m3_Hwi_Module_startup__E
00017a58   ti_sysbios_family_arm_m3_Hwi_NUM_INTERRUPTS__C
00017798   ti_sysbios_family_arm_m3_Hwi_Object__DESC__C
0001757c   ti_sysbios_family_arm_m3_Hwi_Object__PARAMS__C
00017a5c   ti_sysbios_family_arm_m3_Hwi_Object__count__C
000144e5   ti_sysbios_family_arm_m3_Hwi_Object__delete__S
00014865   ti_sysbios_family_arm_m3_Hwi_Object__destruct__S
00014f39   ti_sysbios_family_arm_m3_Hwi_Object__get__S
2000fe08   ti_sysbios_family_arm_m3_Hwi_Object__table__V
00015349   ti_sysbios_family_arm_m3_Hwi_Params__init__S
00017a60   ti_sysbios_family_arm_m3_Hwi_ccr__C
00011225   ti_sysbios_family_arm_m3_Hwi_construct
00010389   ti_sysbios_family_arm_m3_Hwi_create
0001554b   ti_sysbios_family_arm_m3_Hwi_delete
0001554f   ti_sysbios_family_arm_m3_Hwi_destruct
00015355   ti_sysbios_family_arm_m3_Hwi_disableFxn__E
0001232d   ti_sysbios_family_arm_m3_Hwi_disableInterrupt__E
000080b1   ti_sysbios_family_arm_m3_Hwi_dispatchC__I
2000f0b8   ti_sysbios_family_arm_m3_Hwi_dispatchTable
0000ab1d   ti_sysbios_family_arm_m3_Hwi_dispatch__I
00015485   ti_sysbios_family_arm_m3_Hwi_doSwiRestore__I
00014259   ti_sysbios_family_arm_m3_Hwi_doTaskRestore__I
00012371   ti_sysbios_family_arm_m3_Hwi_enableInterrupt__E
00006e81   ti_sysbios_family_arm_m3_Hwi_excBusFault__I
0000cdb5   ti_sysbios_family_arm_m3_Hwi_excDebugMon__I
0000240d   ti_sysbios_family_arm_m3_Hwi_excDumpRegs__I
00014505   ti_sysbios_family_arm_m3_Hwi_excHandlerAsm__I
00017a64   ti_sysbios_family_arm_m3_Hwi_excHandlerFunc__C
000056fd   ti_sysbios_family_arm_m3_Hwi_excHandlerMax__I
00014525   ti_sysbios_family_arm_m3_Hwi_excHandler__I
0000ca39   ti_sysbios_family_arm_m3_Hwi_excHardFault__I
000179c4   ti_sysbios_family_arm_m3_Hwi_excHookFuncs__A
00017a68   ti_sysbios_family_arm_m3_Hwi_excHookFuncs__C
00007e35   ti_sysbios_family_arm_m3_Hwi_excMemFault__I
00013239   ti_sysbios_family_arm_m3_Hwi_excNmi__I
00012ee5   ti_sysbios_family_arm_m3_Hwi_excNoIsr__I
00011dc1   ti_sysbios_family_arm_m3_Hwi_excReserved__I
00012aa1   ti_sysbios_family_arm_m3_Hwi_excSvCall__I
0000755d   ti_sysbios_family_arm_m3_Hwi_excUsageFault__I
00012add   ti_sysbios_family_arm_m3_Hwi_getStackInfo__E
0000dfe1   ti_sysbios_family_arm_m3_Hwi_initNVIC__E
0001127d   ti_sysbios_family_arm_m3_Hwi_initStacks__E
00017a6c   ti_sysbios_family_arm_m3_Hwi_nullIsrFunc__C
e000e000   ti_sysbios_family_arm_m3_Hwi_nvic
00013fcb   ti_sysbios_family_arm_m3_Hwi_pendSV__I
0000f92d   ti_sysbios_family_arm_m3_Hwi_postInit__I
00017a70   ti_sysbios_family_arm_m3_Hwi_priGroup__C
20000000   ti_sysbios_family_arm_m3_Hwi_ramVectors
00000000   ti_sysbios_family_arm_m3_Hwi_resetVectors
000154e5   ti_sysbios_family_arm_m3_Hwi_restoreFxn__E
00013fef   ti_sysbios_family_arm_m3_Hwi_return
0001548d   ti_sysbios_family_arm_m3_Hwi_startup__E
00014f4d   ti_sysbios_family_arm_m3_Hwi_switchFromBootStack__E
00015553   ti_sysbios_family_arm_m3_TaskSupport_Module__startupDone__S
0000e06d   ti_sysbios_family_arm_m3_TaskSupport_buildTaskStack
00015361   ti_sysbios_family_arm_m3_TaskSupport_checkStack__E
0001536d   ti_sysbios_family_arm_m3_TaskSupport_getStackAlignment__E
0001517d   ti_sysbios_family_arm_m3_TaskSupport_glue
00017a74   ti_sysbios_family_arm_m3_TaskSupport_stackAlignment__C
00012f1d   ti_sysbios_family_arm_m3_TaskSupport_start__E
00014cb9   ti_sysbios_family_arm_m3_TaskSupport_swap__E
000146db   ti_sysbios_family_xxx_Hwi_switchAndRunFunc
00014977   ti_sysbios_gates_GateHwi_Handle__label__S
0000bc9f   ti_sysbios_gates_GateHwi_Instance_init__E
000176a0   ti_sysbios_gates_GateHwi_Module__FXNS__C
2000fe2c   ti_sysbios_gates_GateHwi_Module__root__V
000177b8   ti_sysbios_gates_GateHwi_Object__DESC__C
00017904   ti_sysbios_gates_GateHwi_Object__PARAMS__C
000137a1   ti_sysbios_gates_GateHwi_Object__create__S
00014545   ti_sysbios_gates_GateHwi_Object__delete__S
2000fe34   ti_sysbios_gates_GateHwi_Object__table__V
00015379   ti_sysbios_gates_GateHwi_enter__E
000154eb   ti_sysbios_gates_GateHwi_leave__E
00015557   ti_sysbios_gates_GateHwi_query__E
00017a78   ti_sysbios_gates_GateMutex_A_badContext__C
00014991   ti_sysbios_gates_GateMutex_Handle__label__S
00017a7c   ti_sysbios_gates_GateMutex_Instance_State_sem__O
0001518d   ti_sysbios_gates_GateMutex_Instance_finalize__E
00014881   ti_sysbios_gates_GateMutex_Instance_init__E
000176c4   ti_sysbios_gates_GateMutex_Module__FXNS__C
00017a80   ti_sysbios_gates_GateMutex_Module__diagsEnabled__C
00017a84   ti_sysbios_gates_GateMutex_Module__diagsIncluded__C
00017a88   ti_sysbios_gates_GateMutex_Module__diagsMask__C
00017c54   ti_sysbios_gates_GateMutex_Module__id__C
2000fe38   ti_sysbios_gates_GateMutex_Module__root__V
000177d8   ti_sysbios_gates_GateMutex_Object__DESC__C
0001791c   ti_sysbios_gates_GateMutex_Object__PARAMS__C
000137d1   ti_sysbios_gates_GateMutex_Object__create__S
0001427d   ti_sysbios_gates_GateMutex_Object__delete__S
20010504   ti_sysbios_gates_GateMutex_Object__table__V
0000caed   ti_sysbios_gates_GateMutex_enter__E
00014cd1   ti_sysbios_gates_GateMutex_leave__E
0001555b   ti_sysbios_gates_GateMutex_query__E
00017a8c   ti_sysbios_hal_Hwi_E_stackOverflow__C
0001555f   ti_sysbios_hal_Hwi_HwiProxy_Module__startupDone__S
0001232d   ti_sysbios_hal_Hwi_HwiProxy_disableInterrupt__E
00015355   ti_sysbios_hal_Hwi_HwiProxy_disable__E
00012371   ti_sysbios_hal_Hwi_HwiProxy_enableInterrupt__E
00012add   ti_sysbios_hal_Hwi_HwiProxy_getStackInfo__E
000154e5   ti_sysbios_hal_Hwi_HwiProxy_restore__E
0001548d   ti_sysbios_hal_Hwi_HwiProxy_startup__E
00014f4d   ti_sysbios_hal_Hwi_HwiProxy_switchFromBootStack__E
00017c56   ti_sysbios_hal_Hwi_Module__id__C
2000fe40   ti_sysbios_hal_Hwi_Module__root__V
00015077   ti_sysbios_hal_Hwi_Module_startup__E
0001326d   ti_sysbios_hal_Hwi_checkStack
0001232d   ti_sysbios_hal_Hwi_disableInterrupt__E
00015355   ti_sysbios_hal_Hwi_disable__E
00012371   ti_sysbios_hal_Hwi_enableInterrupt__E
00012add   ti_sysbios_hal_Hwi_getStackInfo__E
00013add   ti_sysbios_hal_Hwi_initStack
000154e5   ti_sysbios_hal_Hwi_restore__E
0001548d   ti_sysbios_hal_Hwi_startup__E
00017a90   ti_sysbios_heaps_HeapMem_A_align__C
00017a94   ti_sysbios_heaps_HeapMem_A_heapSize__C
00017a98   ti_sysbios_heaps_HeapMem_A_invalidFree__C
00017a9c   ti_sysbios_heaps_HeapMem_A_zeroBlock__C
00017aa0   ti_sysbios_heaps_HeapMem_E_memory__C
000149ab   ti_sysbios_heaps_HeapMem_Handle__label__S
20000380   ti_sysbios_heaps_HeapMem_Instance_State_0_buf__A
000081e9   ti_sysbios_heaps_HeapMem_Instance_init__E
00015563   ti_sysbios_heaps_HeapMem_Module_GateProxy_enter__E
00015567   ti_sysbios_heaps_HeapMem_Module_GateProxy_leave__E
0001555b   ti_sysbios_heaps_HeapMem_Module_GateProxy_query__E
0001762c   ti_sysbios_heaps_HeapMem_Module__FXNS__C
00017aa4   ti_sysbios_heaps_HeapMem_Module__diagsEnabled__C
00017aa8   ti_sysbios_heaps_HeapMem_Module__diagsIncluded__C
00017aac   ti_sysbios_heaps_HeapMem_Module__diagsMask__C
00017ab0   ti_sysbios_heaps_HeapMem_Module__gateObj__C
00017c58   ti_sysbios_heaps_HeapMem_Module__id__C
2000fe48   ti_sysbios_heaps_HeapMem_Module__root__V
000177f8   ti_sysbios_heaps_HeapMem_Object__DESC__C
000176e8   ti_sysbios_heaps_HeapMem_Object__PARAMS__C
00017ab4   ti_sysbios_heaps_HeapMem_Object__count__C
00013801   ti_sysbios_heaps_HeapMem_Object__create__S
00014565   ti_sysbios_heaps_HeapMem_Object__delete__S
00014f61   ti_sysbios_heaps_HeapMem_Object__get__S
2000fe50   ti_sysbios_heaps_HeapMem_Object__table__V
00004ca1   ti_sysbios_heaps_HeapMem_alloc__E
0000481d   ti_sysbios_heaps_HeapMem_free__E
00011e09   ti_sysbios_heaps_HeapMem_getStats__E
00012b19   ti_sysbios_heaps_HeapMem_init__I
000154f1   ti_sysbios_heaps_HeapMem_isBlocking__E
00017ab8   ti_sysbios_heaps_HeapMem_reqAlign__C
00017abc   ti_sysbios_knl_Clock_A_badThreadType__C
00009255   ti_sysbios_knl_Clock_Instance_init__E
00017ac0   ti_sysbios_knl_Clock_LM_begin__C
00017ac4   ti_sysbios_knl_Clock_LM_tick__C
00017ac8   ti_sysbios_knl_Clock_LW_delayed__C
00017acc   ti_sysbios_knl_Clock_Module_State_clockQ__O
00017ad0   ti_sysbios_knl_Clock_Module__diagsEnabled__C
00017ad4   ti_sysbios_knl_Clock_Module__diagsIncluded__C
00017ad8   ti_sysbios_knl_Clock_Module__diagsMask__C
00017c5a   ti_sysbios_knl_Clock_Module__id__C
00017c5c   ti_sysbios_knl_Clock_Module__loggerDefined__C
00017adc   ti_sysbios_knl_Clock_Module__loggerFxn1__C
00017ae0   ti_sysbios_knl_Clock_Module__loggerFxn2__C
00017ae4   ti_sysbios_knl_Clock_Module__loggerObj__C
2000fe68   ti_sysbios_knl_Clock_Module__root__V
20010638   ti_sysbios_knl_Clock_Module__state__V
000142a1   ti_sysbios_knl_Clock_Module_startup__E
00017818   ti_sysbios_knl_Clock_Object__DESC__C
0001770c   ti_sysbios_knl_Clock_Object__PARAMS__C
00015385   ti_sysbios_knl_Clock_Params__init__S
0001556b   ti_sysbios_knl_Clock_TimerProxy_Module__startupDone__S
0001556f   ti_sysbios_knl_Clock_TimerProxy_getMaxTicks__E
00012749   ti_sysbios_knl_Clock_TimerProxy_startup__E
00012b55   ti_sysbios_knl_Clock_create
00013b09   ti_sysbios_knl_Clock_doTick__I
00015391   ti_sysbios_knl_Clock_getTicks__E
0001093d   ti_sysbios_knl_Clock_logTick__E
0000f531   ti_sysbios_knl_Clock_start__E
00008a51   ti_sysbios_knl_Clock_workFunc__E
2000fe70   ti_sysbios_knl_Event_Module__root__V
000179cc   ti_sysbios_knl_Idle_funcList__A
000179d4   ti_sysbios_knl_Idle_funcList__C
00015495   ti_sysbios_knl_Idle_loop__E
00014585   ti_sysbios_knl_Idle_run__E
00017ae8   ti_sysbios_knl_Mailbox_Instance_State_freeQue__O
2000fe78   ti_sysbios_knl_Mailbox_Module__root__V
0000e20d   ti_sysbios_knl_Mailbox_Module_startup__E
00017aec   ti_sysbios_knl_Mailbox_Object__count__C
0001519d   ti_sysbios_knl_Mailbox_Object__get__S
00017af0   ti_sysbios_knl_Mailbox_maxTypeAlign__C
000154f7   ti_sysbios_knl_Queue_Instance_init__E
2000fe80   ti_sysbios_knl_Queue_Module__root__V
00017838   ti_sysbios_knl_Queue_Object__DESC__C
00017934   ti_sysbios_knl_Queue_Object__PARAMS__C
0001489d   ti_sysbios_knl_Queue_Object__destruct__S
0001539d   ti_sysbios_knl_Queue_Object__get__S
00013b35   ti_sysbios_knl_Queue_construct
00015573   ti_sysbios_knl_Queue_destruct
00015293   ti_sysbios_knl_Queue_empty__E
00017af4   ti_sysbios_knl_Semaphore_A_badContext__C
00017af8   ti_sysbios_knl_Semaphore_A_noEvents__C
00017afc   ti_sysbios_knl_Semaphore_A_overflow__C
00017b00   ti_sysbios_knl_Semaphore_A_pendTaskDisabled__C
00017b04   ti_sysbios_knl_Semaphore_Instance_State_pendQ__O
000151ad   ti_sysbios_knl_Semaphore_Instance_finalize__E
0000d611   ti_sysbios_knl_Semaphore_Instance_init__E
00017b08   ti_sysbios_knl_Semaphore_LM_pend__C
00017b0c   ti_sysbios_knl_Semaphore_LM_post__C
00017b10   ti_sysbios_knl_Semaphore_Module__diagsEnabled__C
00017b14   ti_sysbios_knl_Semaphore_Module__diagsIncluded__C
00017b18   ti_sysbios_knl_Semaphore_Module__diagsMask__C
00017c5e   ti_sysbios_knl_Semaphore_Module__id__C
00017c60   ti_sysbios_knl_Semaphore_Module__loggerDefined__C
00017b1c   ti_sysbios_knl_Semaphore_Module__loggerFxn2__C
00017b20   ti_sysbios_knl_Semaphore_Module__loggerFxn4__C
00017b24   ti_sysbios_knl_Semaphore_Module__loggerObj__C
2000fe88   ti_sysbios_knl_Semaphore_Module__root__V
00017858   ti_sysbios_knl_Semaphore_Object__DESC__C
00017730   ti_sysbios_knl_Semaphore_Object__PARAMS__C
000142c5   ti_sysbios_knl_Semaphore_Object__delete__S
000145a5   ti_sysbios_knl_Semaphore_Object__destruct__S
000153a9   ti_sysbios_knl_Semaphore_Params__init__S
00013831   ti_sysbios_knl_Semaphore_construct
000132a1   ti_sysbios_knl_Semaphore_create
00015577   ti_sysbios_knl_Semaphore_delete
0001557b   ti_sysbios_knl_Semaphore_destruct
000134ff   ti_sysbios_knl_Semaphore_pendTimeout__I
00003609   ti_sysbios_knl_Semaphore_pend__E
00008321   ti_sysbios_knl_Semaphore_post__E
00015089   ti_sysbios_knl_Semaphore_reset__E
00017b28   ti_sysbios_knl_Swi_A_badPriority__C
000149c5   ti_sysbios_knl_Swi_Handle__label__S
00011529   ti_sysbios_knl_Swi_Instance_finalize__E
0000bb01   ti_sysbios_knl_Swi_Instance_init__E
00017b2c   ti_sysbios_knl_Swi_LD_end__C
00017b30   ti_sysbios_knl_Swi_LM_begin__C
00017b34   ti_sysbios_knl_Swi_LM_post__C
20010270   ti_sysbios_knl_Swi_Module_State_0_readyQ__A
00017b38   ti_sysbios_knl_Swi_Module__diagsEnabled__C
00017b3c   ti_sysbios_knl_Swi_Module__diagsIncluded__C
00017b40   ti_sysbios_knl_Swi_Module__diagsMask__C
00017c62   ti_sysbios_knl_Swi_Module__id__C
00017c64   ti_sysbios_knl_Swi_Module__loggerDefined__C
00017b44   ti_sysbios_knl_Swi_Module__loggerFxn1__C
00017b48   ti_sysbios_knl_Swi_Module__loggerFxn4__C
00017b4c   ti_sysbios_knl_Swi_Module__loggerObj__C
2000fe90   ti_sysbios_knl_Swi_Module__root__V
2000fe98   ti_sysbios_knl_Swi_Module__state__V
000142e9   ti_sysbios_knl_Swi_Module_startup__E
00017878   ti_sysbios_knl_Swi_Object__DESC__C
00017654   ti_sysbios_knl_Swi_Object__PARAMS__C
00017b50   ti_sysbios_knl_Swi_Object__count__C
000145c5   ti_sysbios_knl_Swi_Object__delete__S
00014f75   ti_sysbios_knl_Swi_Object__get__S
20010608   ti_sysbios_knl_Swi_Object__table__V
00010ce5   ti_sysbios_knl_Swi_create
0001557f   ti_sysbios_knl_Swi_delete
000151bd   ti_sysbios_knl_Swi_disable__E
0000d111   ti_sysbios_knl_Swi_post__E
000112d5   ti_sysbios_knl_Swi_restoreHwi__E
0001197d   ti_sysbios_knl_Swi_runLoop__I
00009015   ti_sysbios_knl_Swi_run__I
0001132d   ti_sysbios_knl_Swi_schedule__I
00012b91   ti_sysbios_knl_Swi_startup__E
00017b54   ti_sysbios_knl_Task_A_badPriority__C
00017b58   ti_sysbios_knl_Task_A_badTaskState__C
00017b5c   ti_sysbios_knl_Task_A_badThreadType__C
00017b60   ti_sysbios_knl_Task_A_badTimeout__C
00017b64   ti_sysbios_knl_Task_A_noPendElem__C
00017b68   ti_sysbios_knl_Task_A_sleepTaskDisabled__C
00017b6c   ti_sysbios_knl_Task_E_deleteNotAllowed__C
00017b70   ti_sysbios_knl_Task_E_spOutOfBounds__C
00017b74   ti_sysbios_knl_Task_E_stackOverflow__C
000149df   ti_sysbios_knl_Task_Handle__label__S
2000fd38   ti_sysbios_knl_Task_Instance_State_0_hookEnv__A
2000db78   ti_sysbios_knl_Task_Instance_State_0_stack__A
2000fd3c   ti_sysbios_knl_Task_Instance_State_1_hookEnv__A
2000e378   ti_sysbios_knl_Task_Instance_State_1_stack__A
2000fd40   ti_sysbios_knl_Task_Instance_State_2_hookEnv__A
2000e978   ti_sysbios_knl_Task_Instance_State_2_stack__A
00003be1   ti_sysbios_knl_Task_Instance_finalize__E
00005ae9   ti_sysbios_knl_Task_Instance_init__E
00017b78   ti_sysbios_knl_Task_LD_block__C
00017b7c   ti_sysbios_knl_Task_LD_exit__C
00017b80   ti_sysbios_knl_Task_LD_ready__C
00017b84   ti_sysbios_knl_Task_LM_setPri__C
00017b88   ti_sysbios_knl_Task_LM_sleep__C
00017b8c   ti_sysbios_knl_Task_LM_switch__C
2000febc   ti_sysbios_knl_Task_Module_State_0_idleTask__A
200102f0   ti_sysbios_knl_Task_Module_State_0_readyQ__A
00017b90   ti_sysbios_knl_Task_Module_State_inactiveQ__O
00017b94   ti_sysbios_knl_Task_Module_State_terminatedQ__O
00017b98   ti_sysbios_knl_Task_Module__diagsEnabled__C
00017b9c   ti_sysbios_knl_Task_Module__diagsIncluded__C
00017ba0   ti_sysbios_knl_Task_Module__diagsMask__C
00017c66   ti_sysbios_knl_Task_Module__id__C
00017c68   ti_sysbios_knl_Task_Module__loggerDefined__C
00017ba4   ti_sysbios_knl_Task_Module__loggerFxn2__C
00017ba8   ti_sysbios_knl_Task_Module__loggerFxn4__C
00017bac   ti_sysbios_knl_Task_Module__loggerObj__C
2000feb4   ti_sysbios_knl_Task_Module__root__V
200103c0   ti_sysbios_knl_Task_Module__state__V
0000e5b5   ti_sysbios_knl_Task_Module_startup__E
00017898   ti_sysbios_knl_Task_Object__DESC__C
00017510   ti_sysbios_knl_Task_Object__PARAMS__C
00017bb0   ti_sysbios_knl_Task_Object__count__C
000145e5   ti_sysbios_knl_Task_Object__delete__S
00014f89   ti_sysbios_knl_Task_Object__first__S
000151cd   ti_sysbios_knl_Task_Object__get__S
00017bb4   ti_sysbios_knl_Task_Object__heap__C
00014f9d   ti_sysbios_knl_Task_Object__next__S
20010008   ti_sysbios_knl_Task_Object__table__V
000153b5   ti_sysbios_knl_Task_Params__init__S
00015583   ti_sysbios_knl_Task_SupportProxy_Module__startupDone__S
00015361   ti_sysbios_knl_Task_SupportProxy_checkStack__E
0001536d   ti_sysbios_knl_Task_SupportProxy_getStackAlignment__E
00012f1d   ti_sysbios_knl_Task_SupportProxy_start__E
00014cb9   ti_sysbios_knl_Task_SupportProxy_swap__E
00017bb8   ti_sysbios_knl_Task_allBlockedFunc__C
000123b5   ti_sysbios_knl_Task_allBlockedFunction__I
0000d1b9   ti_sysbios_knl_Task_blockI__E
0000cba1   ti_sysbios_knl_Task_checkStacks__E
00010d41   ti_sysbios_knl_Task_create
00017bbc   ti_sysbios_knl_Task_defaultStackHeap__C
00017bc0   ti_sysbios_knl_Task_defaultStackSize__C
00015587   ti_sysbios_knl_Task_delete
00011e51   ti_sysbios_knl_Task_deleteTerminatedTasksFunc__I
000151dd   ti_sysbios_knl_Task_disable__E
0001430d   ti_sysbios_knl_Task_enter__I
00008ca5   ti_sysbios_knl_Task_exit__E
0001549d   ti_sysbios_knl_Task_getHookContext__E
000151ed   ti_sysbios_knl_Task_getIdleTask__E
0001794c   ti_sysbios_knl_Task_hooks__A
000179dc   ti_sysbios_knl_Task_hooks__C
00017c6a   ti_sysbios_knl_Task_initStackFlag__C
00017bc4   ti_sysbios_knl_Task_numConstructedTasks__C
0000adf5   ti_sysbios_knl_Task_postInit__I
00012f55   ti_sysbios_knl_Task_processVitalTaskFlag__I
00013b61   ti_sysbios_knl_Task_restore__E
00009f2d   ti_sysbios_knl_Task_schedule__I
000153c1   ti_sysbios_knl_Task_self__E
000154a5   ti_sysbios_knl_Task_setHookContext__E
00006a1d   ti_sysbios_knl_Task_setPri__E
000149f9   ti_sysbios_knl_Task_sleepTimeout__I
000050f9   ti_sysbios_knl_Task_sleep__E
0000ac11   ti_sysbios_knl_Task_startCore__E
0001558b   ti_sysbios_knl_Task_startup__E
00014cc5   ti_sysbios_knl_Task_swapReturn
0000c6a1   ti_sysbios_knl_Task_unblockI__E
2000fcac   tpseudo
00017490   uartTivaHWAttrs
2000ec78   uartTivaObjects
2000fd44   uart_2
2000fd48   uart_3
2000fd4c   uart_4
2000fd50   uart_5
2000fd54   uart_6
2000fd58   uart_7
2000fbbc   udps
00003389   unlink
2000fcb8   upseudo
2000fb70   vlan_mcb
000032f9   write
00017bc8   xdc_runtime_Assert_E_assertFailed__C
00011e99   xdc_runtime_Assert_raise__I
00017bcc   xdc_runtime_Core_A_initializedParams__C
00017bd0   xdc_runtime_Core_Module__diagsEnabled__C
00017bd4   xdc_runtime_Core_Module__diagsIncluded__C
00017bd8   xdc_runtime_Core_Module__diagsMask__C
00017c6c   xdc_runtime_Core_Module__id__C
000132d5   xdc_runtime_Core_assignLabel__I
00011fb5   xdc_runtime_Core_assignParams__I
0000be39   xdc_runtime_Core_constructObject__I
0000a031   xdc_runtime_Core_createObject__I
000101f7   xdc_runtime_Core_deleteObject__I
00017bdc   xdc_runtime_Error_E_memory__C
00017be0   xdc_runtime_Error_Module__diagsEnabled__C
00017be4   xdc_runtime_Error_Module__diagsIncluded__C
00017be8   xdc_runtime_Error_Module__diagsMask__C
00017c6e   xdc_runtime_Error_Module__loggerDefined__C
00017bec   xdc_runtime_Error_Module__loggerFxn8__C
00017bf0   xdc_runtime_Error_Module__loggerObj__C
2000fec0   xdc_runtime_Error_Module__state__V
00014ce9   xdc_runtime_Error_check__E
0001558f   xdc_runtime_Error_getMsg__E
00015593   xdc_runtime_Error_getSite__E
000153cd   xdc_runtime_Error_init__E
00017c70   xdc_runtime_Error_maxDepth__C
00009135   xdc_runtime_Error_policyDefault__E
00017bf4   xdc_runtime_Error_policyFxn__C
00016db5   xdc_runtime_Error_policy__C
0000fd75   xdc_runtime_Error_print__E
00017bf8   xdc_runtime_Error_raiseHook__C
000148b9   xdc_runtime_Error_raiseX__E
000123f9   xdc_runtime_Error_setX__E
000153d9   xdc_runtime_Gate_enterSystem__E
000151fd   xdc_runtime_Gate_leaveSystem__E
00017bfc   xdc_runtime_IGateProvider_Interface__BASE__C
00017c00   xdc_runtime_IHeap_Interface__BASE__C
00017c04   xdc_runtime_IModule_Interface__BASE__C
00017c08   xdc_runtime_Log_L_error__C
00015557   xdc_runtime_Main_Module_GateProxy_query__E
00015597   xdc_runtime_Memory_HeapProxy_alloc__E
0001559b   xdc_runtime_Memory_HeapProxy_free__E
00017c72   xdc_runtime_Memory_Module__id__C
2000fec4   xdc_runtime_Memory_Module__state__V
0000f99d   xdc_runtime_Memory_alloc__E
000153e5   xdc_runtime_Memory_calloc__E
00017c0c   xdc_runtime_Memory_defaultHeapInstance__C
0001520d   xdc_runtime_Memory_free__E
000153f1   xdc_runtime_Memory_getMaxDefaultTypeAlign__E
000148d5   xdc_runtime_Memory_valloc__E
2000fec8   xdc_runtime_Registry_Module__state__V
00014605   xdc_runtime_Registry_findById__E
2000fed0   xdc_runtime_Startup_Module__state__V
00000001   xdc_runtime_Startup__EXECFXN__C
00000001   xdc_runtime_Startup__RESETFXN__C
00017c10   xdc_runtime_Startup_execImpl__C
0001175d   xdc_runtime_Startup_exec__E
0001509b   xdc_runtime_Startup_exec__I
00017964   xdc_runtime_Startup_firstFxns__A
000179e4   xdc_runtime_Startup_firstFxns__C
000179ec   xdc_runtime_Startup_lastFxns__C
00017c14   xdc_runtime_Startup_maxPasses__C
0000bfcf   xdc_runtime_Startup_reset__I
00017978   xdc_runtime_Startup_sfxnRts__A
00017c18   xdc_runtime_Startup_sfxnRts__C
00017754   xdc_runtime_Startup_sfxnTab__A
00017c1c   xdc_runtime_Startup_sfxnTab__C
0000a739   xdc_runtime_Startup_startMods__I
2000f964   xdc_runtime_SysMin_Module_State_0_outbuf__A
2000fed8   xdc_runtime_SysMin_Module__state__V
00014625   xdc_runtime_SysMin_Module_startup__E
00013861   xdc_runtime_SysMin_abort__E
00017c20   xdc_runtime_SysMin_bufSize__C
000148f1   xdc_runtime_SysMin_exit__E
00017c74   xdc_runtime_SysMin_flushAtExit__C
0001243d   xdc_runtime_SysMin_flush__E
00017c24   xdc_runtime_SysMin_outputFunc__C
00014421   xdc_runtime_SysMin_output__I
00012f8d   xdc_runtime_SysMin_putch__E
0001521d   xdc_runtime_SysMin_ready__E
0001559f   xdc_runtime_System_Module_GateProxy_enter__E
000155a3   xdc_runtime_System_Module_GateProxy_leave__E
00015557   xdc_runtime_System_Module_GateProxy_query__E
2000fee4   xdc_runtime_System_Module_State_0_atexitHandlers__A
00017c28   xdc_runtime_System_Module__gateObj__C
2000ff04   xdc_runtime_System_Module__state__V
000154fd   xdc_runtime_System_Module_startup__E
00013861   xdc_runtime_System_SupportProxy_abort__E
000148f1   xdc_runtime_System_SupportProxy_exit__E
0001243d   xdc_runtime_System_SupportProxy_flush__E
00012f8d   xdc_runtime_System_SupportProxy_putch__E
0001521d   xdc_runtime_System_SupportProxy_ready__E
00017c2c   xdc_runtime_System_abortFxn__C
00012265   xdc_runtime_System_abortStd__E
0001490d   xdc_runtime_System_abort__E
00014a13   xdc_runtime_System_aprintf__E
000155a7   xdc_runtime_System_aprintf_va__F
00012fc5   xdc_runtime_System_atexit__E
00013ff1   xdc_runtime_System_avprintf__E
00002fbd   xdc_runtime_System_doPrint__I
00017c30   xdc_runtime_System_exitFxn__C
0001226d   xdc_runtime_System_exitStd__E
00014d01   xdc_runtime_System_exit__E
00017c34   xdc_runtime_System_extendFxn__C
0001243d   xdc_runtime_System_flush__E
0001099d   xdc_runtime_System_formatNum__I
00017c38   xdc_runtime_System_maxAtexitHandlers__C
0000a135   xdc_runtime_System_printfExtend__I
00014a2d   xdc_runtime_System_printf__E
000155ab   xdc_runtime_System_printf_va__F
00013891   xdc_runtime_System_processAtExit__E
00013c61   xdc_runtime_System_putchar__I
00014331   xdc_runtime_System_vprintf__E
0001522d   xdc_runtime_System_vsnprintf__E
00014de1   xdc_runtime_System_vsprintf__E
2000ff0c   xdc_runtime_Text_Module__state__V
00017c76   xdc_runtime_Text_charCnt__C
000155b0   xdc_runtime_Text_charTab__A
00017c3c   xdc_runtime_Text_charTab__C
00013b8d   xdc_runtime_Text_cordText__E
00017c78   xdc_runtime_Text_isLoaded__C
00017c40   xdc_runtime_Text_nameEmpty__C
00017c44   xdc_runtime_Text_nameStatic__C
00017c48   xdc_runtime_Text_nameUnknown__C
000170d0   xdc_runtime_Text_nodeTab__A
00017c4c   xdc_runtime_Text_nodeTab__C
00013309   xdc_runtime_Text_printVisFxn__I
00010df9   xdc_runtime_Text_putLab__E
0000db65   xdc_runtime_Text_putMod__E
0000d6ad   xdc_runtime_Text_putSite__E
00017c7a   xdc_runtime_Text_registryModsLastId__C
00014d19   xdc_runtime_Text_ropeText__E
00017c7c   xdc_runtime_Text_unnamedModsLastId__C
000117ad   xdc_runtime_Text_visitRope2__I
00017c50   xdc_runtime_Text_visitRopeFxn__C
0001523d   xdc_runtime_Text_visitRope__I
00012bcd   xdc_runtime_Text_xprintf__I


GLOBAL SYMBOLS: SORTED BY Symbol Address 

address    name
--------   ----
00000000   __ASM__
00000000   __TI_static_base__
00000000   ti_sysbios_family_arm_m3_Hwi_resetVectors
00000001   __TI_args_main
00000001   xdc_runtime_Startup__EXECFXN__C
00000001   xdc_runtime_Startup__RESETFXN__C
00000086   __ISA__
00000099   __PLAT__
000000ba   __TARG__
000000e0   __TRDR__
00000800   __STACK_SIZE
00000bf3   __TI_printfi
00000efd   TcpInput
00001b6d   TcpOutput
0000240d   ti_sysbios_family_arm_m3_Hwi_excDumpRegs__I
00002831   IPTxPacket
00002c39   IPRxPacket
00002fbd   xdc_runtime_System_doPrint__I
000032f9   write
00003389   remove
00003389   unlink
000033ad   rename
000033eb   remove_device
00003413   read
00003437   open
000034e5   lseek
00003509   close
0000355b   add_device
00003609   ti_sysbios_knl_Semaphore_pend__E
0000390d   HOSTwrite
00003959   HOSTunlink
00003991   HOSTtime
000039cb   HOSTrename
00003a29   HOSTread
00003a75   HOSTopen
00003ac7   HOSTlseek
00003b23   HOSTgetenv
00003b61   HOSTclose
00003b99   HOSTclock
00003be1   ti_sysbios_knl_Task_Instance_finalize__E
00003ea1   SockSet
00004115   roveHorizon_Recv
00004383   LED_TOGGLE
00004385   IPReasm
000045d1   ti_sysbios_family_arm_lm4_Timer_start__E
0000481d   ti_sysbios_heaps_HeapMem_free__E
00004a65   ICMPInput
00004ca1   ti_sysbios_heaps_HeapMem_alloc__E
00004ed5   UdpInput
000050f9   TaskSleep
000050f9   ti_sysbios_knl_Task_sleep__E
00005301   ti_catalog_arm_cortexm4_tiva_ce_Boot_sysCtlClockFreqSetI__I
00005505   SockRecv
000056fd   ti_sysbios_family_arm_m3_Hwi_excHandlerMax__I
000058f5   __aeabi_uldivmod
00005ae9   ti_sysbios_knl_Task_Instance_init__E
00005d95   __TI_cleanup
00005dc1   freopen
00005deb   fopen
00005e8d   EMACSnow_NIMUInit
00006045   __aeabi_dsub
0000604f   __aeabi_dadd
000061fb   NatMsg
000061fd   LLITxIpPacket
000063b1   LLIRxPacket
00006561   mmAlloc
000066f9   SockNew
0000688d   IGMPInput
00006a1d   ti_sysbios_knl_Task_setPri__E
00006ba1   PWMTiva_open
00006d11   RTCReport
00006e81   ti_sysbios_family_arm_m3_Hwi_excBusFault__I
00006fe9   SBRead
0000714f   _TaskInit
00007151   SockConnect
000072b5   NC_NetStart
00007409   main
0000755d   ti_sysbios_family_arm_m3_Hwi_excUsageFault__I
000076b1   BindNew
000077f5   CfgAddEntry
00007935   DHCPOpen
00007a75   EK_TM4C1294XL_initUART
00007bb5   TcpTimeoutCheck
00007cf5   UARTTiva_open
00007e35   ti_sysbios_family_arm_m3_Hwi_excMemFault__I
00007f75   SockSend
000080b1   ti_sysbios_family_arm_m3_Hwi_dispatchC__I
000081e9   ti_sysbios_heaps_HeapMem_Instance_init__E
00008321   ti_sysbios_knl_Semaphore_post__E
00008459   __aeabi_ddiv
0000858f   _TaskShutdown
00008591   fputs
0000869d   puts
000086c5   GPIOPadConfigSet
000087f5   ICMPGenPacket
00008925   EK_TM4C1294XL_initEMAC
00008a51   ti_sysbios_knl_Clock_workFunc__E
00008b7d   UdpOutput
00008ca5   TaskExit
00008ca5   ti_sysbios_knl_Task_exit__E
00008dcd   SockPcbResolve
00008ef1   ti_ndk_config_Global_stackThread
00009015   ti_sysbios_knl_Swi_run__I
00009135   xdc_runtime_Error_policyDefault__E
00009255   ti_sysbios_knl_Clock_Instance_init__E
00009371   roveTCP_Connect
0000948d   SockNotify
000095a5   TcpGenPacket
000096bd   roveCatch_NdkErrors
000097d5   NIMUIoctl
000098e5   NodeTreeFree
000099f5   RawInput
00009c11   RtCreate
00009d1d   RtFind
00009e29   llEnter
00009f2d   ti_sysbios_knl_Task_schedule__I
0000a031   xdc_runtime_Core_createObject__I
0000a135   xdc_runtime_System_printfExtend__I
0000a239   dhcpPacketProcess
0000a33b   _llSerialServiceCheck
0000a43d   inet_aton
0000a53d   PipeRecv
0000a63b   __aeabi_dmul
0000a737   _llSerialShutdown
0000a739   xdc_runtime_Startup_startMods__I
0000a835   PWMTiva_setDuty
0000a92f   _llUserLedInit
0000a931   EMACSnow_emacStart
0000aa29   TaskGetEnv
0000ab1d   ti_sysbios_family_arm_m3_Hwi_dispatch__I
0000ac11   ti_sysbios_knl_Task_startCore__E
0000ad05   LLIGenArpPacket
0000adf5   ti_sysbios_knl_Task_postInit__I
0000aee5   SockClose
0000afd3   _llUserLedShutdown
0000afd5   roveDeviceTemplateThread
0000b0bf   llSerialService
0000b0c1   TaskSetEnv
0000b1a9   TcpTimeoutRexmt
0000b289   SBWrite
0000b365   dhcpSocketOpen
0000b441   setvbuf
0000b51d   ti_ndk_config_ip_init
0000b5f9   dhcpState
0000b6d5   NodeAdd
0000b7ad   NIMUReceivePacket
0000b959   SockPcbBind
0000ba2d   TcpPrSetOption
0000baff   ti_sysbios_BIOS_nullFunc__I
0000bb01   ti_sysbios_knl_Swi_Instance_init__E
0000bc9f   ti_sysbios_gates_GateHwi_Instance_init__E
0000bca1   ICMPSendRtAdv
0000be39   xdc_runtime_Core_constructObject__I
0000bf05   dhcpVerifyMessage
0000bfcf   xdc_runtime_Startup_reset__I
0000bfd1   RawEthSockNew
0000c099   EMACSnow_InitDMADescriptors
0000c2e5   ti_sysbios_family_arm_m3_Hwi_Module_startup__E
0000c469   __TI_doflush
0000c4b5   fflush
0000c5e5   VLANDeinit
0000c6a1   ti_sysbios_knl_Task_unblockI__E
0000c75d   EK_TM4C1294XL_initGeneral
0000c8cd   _LLITimeoutCheck
0000c985   TcpTimeoutKeep
0000ca39   ti_sysbios_family_arm_m3_Hwi_excHardFault__I
0000caed   ti_sysbios_gates_GateMutex_enter__E
0000cba1   ti_sysbios_knl_Task_checkStacks__E
0000cc55   RawEthSockSet
0000cd05   SockCreatePacket
0000cdb5   ti_sysbios_family_arm_m3_Hwi_excDebugMon__I
0000cf11   __TI_wrt_ok
0000cf73   __TI_rd_ok
0000cfbd   ti_sysbios_family_arm_lm4_Timer_enableTiva__I
0000d069   ti_sysbios_family_arm_lm4_Timer_enableTimers__I
0000d111   ti_sysbios_knl_Swi_post__E
0000d1b9   ti_sysbios_knl_Task_blockI__E
0000d261   __TI_auto_init
0000d301   ti_sysbios_family_arm_m3_Hwi_Instance_init__E
0000d3a1   ExecOpen
0000d4d9   fputc
0000d55d   putc
0000d561   putchar
0000d575   __aeabi_memcpy
0000d575   __aeabi_memcpy4
0000d575   __aeabi_memcpy8
0000d575   memcpy
0000d611   ti_sysbios_knl_Semaphore_Instance_init__E
0000d6ad   xdc_runtime_Text_putSite__E
0000d749   IPGetRoute
0000d7e1   NC_SystemOpen
0000d879   __TI_closefile
0000d8df   fclose
0000d911   NIMUAddEthernetHeader
0000d9a9   CfgExecute
0000da3d   CfgRemoveEntry
0000dad1   ti_catalog_arm_cortexm4_tiva_ce_Boot_sysCtlClockFreqSet__E
0000db65   xdc_runtime_Text_putMod__E
0000dbf9   IGMPMsg
0000dc89   SockPcbCtlError
0000dd19   _mmInit
0000dda9   mmBulkAlloc
0000de39   dhcpBuildRequest
0000df55   ti_ndk_config_tcp_init
0000dfe1   ti_sysbios_family_arm_m3_Hwi_initNVIC__E
0000e06d   ti_sysbios_family_arm_m3_TaskSupport_buildTaskStack
0000e185   EK_TM4C1294XL_initPWM
0000e20d   ti_sysbios_knl_Mailbox_Module_startup__E
0000e31b   __aeabi_cdcmpeq
0000e31b   __aeabi_cdcmple
0000e3a1   __aeabi_cdrcmple
0000e429   PWMTiva_control
0000e4ad   TcpPrAttach
0000e531   mmBulkFree
0000e5b5   ti_sysbios_knl_Task_Module_startup__E
0000e6bd   IPMsg
0000e73d   LLINew
0000e7bd   NS_BootTask
0000e83d   PBM_alloc
0000e8bd   RawOutput
0000e9bd   mmFree
0000eabd   fdClose
0000eb3d   CfgGetEntry
0000ebb9   CfgGetNextEntry
0000ecb1   EMACSnow_processPhyInterrupt
0000ed2d   IGMPJoin
0000eda9   NDK_setsockopt
0000ee25   NIMURegister
0000eea1   PBM_free
0000f011   EMACInit
0000f089   NDK_sendto
0000f101   NIMUShutdown
0000f179   TcpXmitTimer
0000f1f1   fdOpenSession
0000f269   inet_pton
0000f2e1   llExit
0000f359   __aeabi_memclr
0000f359   __aeabi_memclr4
0000f359   __aeabi_memclr8
0000f35b   __aeabi_memset
0000f35b   __aeabi_memset4
0000f35b   __aeabi_memset8
0000f361   memset
0000f3d1   TcpTimeoutSackRexmt
0000f449   RawEthRxPacket
0000f4bd   SockPcbConnect
0000f531   ti_sysbios_knl_Clock_start__E
0000f5a5   RtWalkNext
0000f619   SemCreateBinary
0000f68d   EMACSnow_hwiIntFxn
0000f6fd   IGMPLeaveHostGroup
0000f7dd   SockShutdown
0000f84d   dhcpDecodeType
0000f8c5   printf
0000f92d   ti_sysbios_family_arm_m3_Hwi_postInit__I
0000f99d   xdc_runtime_Memory_alloc__E
0000fa0d   NDK_recv
0000faed   DbgPrintf
0000fb59   EMACSnow_emacStop
0000fbc5   NodeTreeNew
0000fc31   UARTTiva_read
0000fc9d   UARTTiva_write
0000fd09   roveGetStructId_ByteCnt
0000fd75   xdc_runtime_Error_print__E
0000fde1   PWMTiva_close
0000fe4b   TcpPrInherit
0000feb5   _RtNodeInsert
0000ff1f   NDK_socket
0000ff89   PBM_open
000100c1   UdpChecksum
00010129   llTimerTick
00010191   UARTTiva_readPolling
000101f7   xdc_runtime_Core_deleteObject__I
0001025d   CfgFree
000102c1   PBMQ_enq
00010325   fseek
00010389   ti_sysbios_family_arm_m3_Hwi_create
000104b5   SBNew
000105dd   CfgGetEntryCnt
0001063d   FdWaitEvent
0001069d   NIMUUnregister
000106fd   NodeFind
0001075d   RTCMsg
000107bd   TcpChecksum
0001081d   dhcpBuildOptions
0001087d   __TI_writemsg
000108a7   C$$IO$$
000108ab   __TI_readmsg
000108dd   ti_sysbios_family_arm_lm4_Timer_isrStub__E
0001093d   ti_sysbios_knl_Clock_logTick__E
0001099d   xdc_runtime_System_formatNum__I
000109fd   RtRemove
00010b19   CfgSetExecuteOrder
00010bd1   SockSpawnAbort
00010c2d   VLANReceivePacket
00010c89   ti_sysbios_family_arm_lm4_Timer_Module_startup__E
00010ce5   ti_sysbios_knl_Swi_create
00010d41   ti_sysbios_knl_Task_create
00010d9d   rovePrintf_ByteBuffer
00010df9   xdc_runtime_Text_putLab__E
00010e55   RtRedirect
00010eaf   TcpValidateMetrics
00010f09   dhcpBuildDecline
00010f63   ltoa
00010fbd   BindFree
00011015   EMACPHYConfigSet
0001111d   SemCreate
00011175   _c_int00
000111cd   roveUART_Init
00011225   ti_sysbios_family_arm_m3_Hwi_construct
0001127d   ti_sysbios_family_arm_m3_Hwi_initStacks__E
000112d5   ti_sysbios_knl_Swi_restoreHwi__E
0001132d   ti_sysbios_knl_Swi_schedule__I
00011385   CfgEntryDeRef
000113d9   IGMPLeave
0001142d   RawEthSockPcbAttach
00011481   TcpTimeoutPersist
000114d5   mmCopy
00011529   ti_sysbios_knl_Swi_Instance_finalize__E
0001157d   NDK_bind
000115cd   NDK_connect
0001166d   SysCtlPeripheralReset
000116bd   TcpPrDetach
0001175d   xdc_runtime_Startup_exec__E
000117ad   xdc_runtime_Text_visitRope2__I
000117fd   NodeDeRef
0001184d   NtAddNetwork
00011899   SockValidateRoute
000118e5   fdint_lockfd
00011931   atoi
0001197d   ti_sysbios_knl_Swi_runLoop__I
000119c9   SockDisconnect
00011a15   TimerNew
00011aa9   CfgNew
00011b39   GPIOPinConfigure
00011b81   LLIMsg
00011bc9   NodeWalk
00011c11   SockPcbResolveChain
00011c59   TcpDrop
00011ca1   _LLIExpListInsert
00011ce9   _RtExpListInsert
00011d31   roveTCP_Recv
00011d79   __aeabi_d2iz
00011dc1   ti_sysbios_family_arm_m3_Hwi_excReserved__I
00011e09   ti_sysbios_heaps_HeapMem_getStats__E
00011e51   ti_sysbios_knl_Task_deleteTerminatedTasksFunc__I
00011e99   xdc_runtime_Assert_raise__I
00011ee1   rovePWM_Init
00011f29   NtIfIdx2Ip
00011fb5   xdc_runtime_Core_assignParams__I
00011ffd   EK_TM4C1294XL_initGPIO
00012041   IPReasmFree
00012085   LLIGetValidTime
000120c9   RawEthSockPcbDetach
0001210d   RouteMsg
00012151   RtWalkEnd
000121d9   llTimerGetTime
0001221d   copy_in
00012261   C$$EXIT
00012265   abort
00012265   xdc_runtime_System_abortStd__E
0001226d   exit
0001226d   xdc_runtime_System_exitStd__E
000122a5   _Dtest
000122e9   ti_sysbios_family_arm_lm4_Timer_stop__E
0001232d   ti_sysbios_family_arm_m3_Hwi_disableInterrupt__E
0001232d   ti_sysbios_hal_Hwi_HwiProxy_disableInterrupt__E
0001232d   ti_sysbios_hal_Hwi_disableInterrupt__E
00012371   ti_sysbios_family_arm_m3_Hwi_enableInterrupt__E
00012371   ti_sysbios_hal_Hwi_HwiProxy_enableInterrupt__E
00012371   ti_sysbios_hal_Hwi_enableInterrupt__E
000123b5   ti_sysbios_knl_Task_allBlockedFunction__I
000123f9   xdc_runtime_Error_setX__E
0001243d   xdc_runtime_SysMin_flush__E
0001243d   xdc_runtime_System_SupportProxy_flush__E
0001243d   xdc_runtime_System_flush__E
00012481   TcpPrSendOOB
000124c3   UARTConfigSetExpClk
00012505   fdCloseSession
00012547   __aeabi_uidivmod
00012589   LLIValidateRoute
000125c9   PBM_copy
00012609   SockPcbDetach
00012649   SockPcbRtChange
00012689   TcpPrDisconnect
000126c9   UARTTiva_writePolling
00012709   mmZeroInit
00012749   ti_sysbios_family_arm_lm4_Timer_startup__E
00012749   ti_sysbios_knl_Clock_TimerProxy_startup__E
00012789   DHCPClose
000127c7   ICMPChecksum
00012843   TcpPrCtlError
00012881   fdint_unlockfd
000128bf   CfgEntryGetData
000128fb   EMACIntDisable
00012975   RtWalkBegin
000129b1   TcpPrConnect
000129ed   TcpSetPersist
00012a65   _llTimerInit
00012aa1   ti_sysbios_family_arm_m3_Hwi_excSvCall__I
00012add   ti_sysbios_family_arm_m3_Hwi_getStackInfo__E
00012add   ti_sysbios_hal_Hwi_HwiProxy_getStackInfo__E
00012add   ti_sysbios_hal_Hwi_getStackInfo__E
00012b19   ti_sysbios_heaps_HeapMem_init__I
00012b55   ti_sysbios_knl_Clock_create
00012b91   ti_sysbios_knl_Swi_startup__E
00012bcd   xdc_runtime_Text_xprintf__I
00012c09   EMACIntEnable
00012c43   _RtNodeRemove
00012c7d   EMACConfigGet
00012cb5   IPReasmTimeout
00012ced   NodeGetRt
00012d25   PWM_init
00012d5d   SysCtlPeripheralReady
00012d95   TaskCreate
00012dcd   TcpClose
00012e05   TimerHSTick
00012e3d   UART_init
00012e75   dhcpOptionsClear
00012ead   fdint_waitevent
00012ee5   ti_sysbios_family_arm_m3_Hwi_excNoIsr__I
00012f1d   ti_sysbios_family_arm_m3_TaskSupport_start__E
00012f1d   ti_sysbios_knl_Task_SupportProxy_start__E
00012f55   ti_sysbios_knl_Task_processVitalTaskFlag__I
00012f8d   xdc_runtime_SysMin_putch__E
00012f8d   xdc_runtime_System_SupportProxy_putch__E
00012fc5   xdc_runtime_System_atexit__E
00012ffd   CfgSetService
00013031   EMACConfigSet
00013065   EMACIntClear
00013099   EMAC_init
000130cd   IPChecksum
00013101   NIMUFindByName
00013135   NIMUInit
00013169   SysCtlPeripheralEnable
0001319d   UARTTiva_close
000131d1   dhcpBuildDiscover
00013239   ti_sysbios_family_arm_m3_Hwi_excNmi__I
0001326d   ti_sysbios_hal_Hwi_checkStack
000132a1   ti_sysbios_knl_Semaphore_create
000132d5   xdc_runtime_Core_assignLabel__I
00013309   xdc_runtime_Text_printVisFxn__I
0001333d   CfgGetImmediate
0001336f   RtDeRef
000133a1   SBSetMax
000133d3   SockIntAbort
00013405   TcpPrSend
00013437   UARTTiva_readCancel
00013469   UARTTiva_writeCancel
000134ff   ti_sysbios_knl_Semaphore_pendTimeout__I
00013531   EMACAddrSet
00013591   NDK_hookCreate
000135c1   NS_PreBoot
000135f1   PWMTiva_init
00013621   SBFlush
00013651   SockBind
00013681   SockCleanPcb
000136b1   SockPrCtlError
000136e1   dhcpPacketSend
00013711   list_remove_node
00013741   strncpy
00013771   ti_sysbios_BIOS_atExitFunc__I
000137a1   ti_sysbios_gates_GateHwi_Object__create__S
000137d1   ti_sysbios_gates_GateMutex_Object__create__S
00013801   ti_sysbios_heaps_HeapMem_Object__create__S
00013831   ti_sysbios_knl_Semaphore_construct
00013861   xdc_runtime_SysMin_abort__E
00013861   xdc_runtime_System_SupportProxy_abort__E
00013891   xdc_runtime_System_processAtExit__E
000138c1   RawEthSockNotify
000138ef   RtSetFailure
0001391d   SBFree
0001394b   malloc
00013979   __aeabi_i2d
000139a7   EMACIntStatus
000139d3   FdSignalEvent
00013a2d   NIMUPacketServiceCheck
00013a59   PipeClose
00013a85   SockPcbAttach
00013add   ti_sysbios_hal_Hwi_initStack
00013b09   ti_sysbios_knl_Clock_doTick__I
00013b35   ti_sysbios_knl_Queue_construct
00013b61   ti_sysbios_knl_Task_restore__E
00013b8d   xdc_runtime_Text_cordText__E
00013bb9   GPIODirModeSet
00013be3   LLIFree
00013c0d   PBMQ_deq
00013c61   xdc_runtime_System_putchar__I
00013c8d   BindFindByNet
00013cb5   EMACSnow_isLinkUp
00013cdd   EMACSnow_pkt_service
00013d05   IGMPTestGroup
00013d2d   NC_SystemClose
00013d55   NIMUCreatePacket
00013d7d   NIMUPacketService
00013e1d   VLANInit
00013e45   _LLIExpListRemove
00013e6d   _LLITimeoutFlush
00013e95   _RtExpListRemove
00013ebd   dhcpPacketReceive
00013ee5   ti_sysbios_family_arm_m3_Hwi_Instance_finalize__E
00013f0d   EMACPHYRead
00013f33   EMACPHYWrite
00013f59   RawEthSockClose
00013f7f   RtSetTimeout
00013fa5   ti_ndk_config_udp_init
00013fcb   ti_sysbios_family_arm_m3_Hwi_pendSV__I
00013fef   ti_sysbios_family_arm_m3_Hwi_return
00013ff1   xdc_runtime_System_avprintf__E
00014017   BindGetIFByDBCast
0001403d   EMACSnow_emacPoll
00014085   ExecTimer
000140a9   GPIO_init
000140cd   NIMUFindByIndex
000140f1   RawEthSockPcbFind
00014139   SockPcbCleanup
0001415d   TcpTimeoutWait2
000141c9   ti_sysbios_BIOS_errorRaiseHook__I
000141ed   ti_sysbios_BIOS_registerRTSLock__I
00014211   ti_sysbios_BIOS_removeRTSLock__I
00014235   ti_sysbios_BIOS_startFunc__I
00014259   ti_sysbios_family_arm_m3_Hwi_doTaskRestore__I
0001427d   ti_sysbios_gates_GateMutex_Object__delete__S
000142a1   ti_sysbios_knl_Clock_Module_startup__E
000142c5   ti_sysbios_knl_Semaphore_Object__delete__S
000142e9   ti_sysbios_knl_Swi_Module_startup__E
0001430d   ti_sysbios_knl_Task_enter__I
00014331   xdc_runtime_System_vprintf__E
00014355   CfgEntryInfo
00014377   CfgEntryRef
00014399   PWMGenConfigure
000143bb   PWMTiva_getPeriodCounts
00014421   xdc_runtime_SysMin_output__I
00014445   BindFindByHost
00014465   NC_BootComplete
000144a5   RTCAddHook
000144c5   RTCRemoveHook
000144e5   ti_sysbios_family_arm_m3_Hwi_Object__delete__S
00014505   ti_sysbios_family_arm_m3_Hwi_excHandlerAsm__I
00014525   ti_sysbios_family_arm_m3_Hwi_excHandler__I
00014545   ti_sysbios_gates_GateHwi_Object__delete__S
00014565   ti_sysbios_heaps_HeapMem_Object__delete__S
00014585   ti_sysbios_knl_Idle_run__E
000145a5   ti_sysbios_knl_Semaphore_Object__destruct__S
000145c5   ti_sysbios_knl_Swi_Object__delete__S
000145e5   ti_sysbios_knl_Task_Object__delete__S
00014605   xdc_runtime_Registry_findById__E
00014625   xdc_runtime_SysMin_Module_startup__E
00014645   PWMPulseWidthSet
00014663   PWMTiva_getPeriodMicroSecs
00014681   fdError
0001469f   list_remove
000146db   ti_sysbios_family_xxx_Hwi_switchAndRunFunc
000146f9   BindFindByIF
00014715   EMACSnow_init
0001474d   ExecClose
00014769   NDK_sprintf
00014785   NIMUAddHeader
000147a1   SockPrDetach
000147bd   TaskDestroy
000147d9   TcpTimeoutRemove
000147f5   UARTDisable
00014811   memccpy
0001482d   ti_ndk_config_global_taskCreateHook
00014849   ti_sysbios_BIOS_rtsLock__I
00014865   ti_sysbios_family_arm_m3_Hwi_Object__destruct__S
00014881   ti_sysbios_gates_GateMutex_Instance_init__E
0001489d   ti_sysbios_knl_Queue_Object__destruct__S
000148b9   xdc_runtime_Error_raiseX__E
000148d5   xdc_runtime_Memory_valloc__E
000148f1   xdc_runtime_SysMin_exit__E
000148f1   xdc_runtime_System_SupportProxy_exit__E
0001490d   xdc_runtime_System_abort__E
00014929   SockSetOOBMark
00014943   fdint_getfdt
0001495d   ti_sysbios_family_arm_m3_Hwi_Handle__label__S
00014977   ti_sysbios_gates_GateHwi_Handle__label__S
00014991   ti_sysbios_gates_GateMutex_Handle__label__S
000149ab   ti_sysbios_heaps_HeapMem_Handle__label__S
000149c5   ti_sysbios_knl_Swi_Handle__label__S
000149df   ti_sysbios_knl_Task_Handle__label__S
000149f9   ti_sysbios_knl_Task_sleepTimeout__I
00014a13   xdc_runtime_System_aprintf__E
00014a2d   xdc_runtime_System_printf__E
00014a49   EMACSnow_emacSend
00014a61   GPIOPinTypeGPIOOutput
00014a79   IPRtChange
00014a91   PWM_open
00014aa9   RawEthSockPcbCleanup
00014b99   TcpTimeoutAdd
00014bb1   UART_Params_init
00014bc9   UART_open
00014be1   dhcpSocketClose
00014bf9   free
00014c11   list_add
00014c29   _args_main
00014c41   __aeabi_lmul
00014c59   strcmp
00014c71   ti_sysbios_BIOS_rtsUnlock__I
00014c89   ti_sysbios_family_arm_lm4_Timer_Module__startupDone__F
00014c89   ti_sysbios_family_arm_lm4_Timer_Module__startupDone__S
00014ca1   ti_sysbios_family_arm_m3_Hwi_Module__startupDone__F
00014ca1   ti_sysbios_family_arm_m3_Hwi_Module__startupDone__S
00014cb9   ti_sysbios_family_arm_m3_TaskSupport_swap__E
00014cb9   ti_sysbios_knl_Task_SupportProxy_swap__E
00014cc5   ti_sysbios_knl_Task_swapReturn
00014cd1   ti_sysbios_gates_GateMutex_leave__E
00014ce9   xdc_runtime_Error_check__E
00014d01   xdc_runtime_System_exit__E
00014d19   xdc_runtime_Text_ropeText__E
00014d31   BindGetIP
00014d47   EMACReset
00014d5d   EMACRxEnable
00014d73   EMACTxEnable
00014d89   fdint_freefdt
00014d9f   memchr
00014db5   strchr
00014dcb   ti_sysbios_BIOS_exitFunc__I
00014de1   xdc_runtime_System_vsprintf__E
00014df7   BindIPHost2IF
00014e0d   FlashUserGet
00014e21   NC_NetStop
00014e35   NDK_hookExit
00014e49   NIMUSendPacket
00014e5d   NtRemoveNetwork
00014e71   PWMClockSet
00014e85   RawEthSockPcbInit
00014e99   SysCtlPWMClockSet
00014ead   TimerFree
00014ec1   UARTEnable
00014ee9   _register_unlock
00014eef   _register_lock
00014ef7   _nop
00014efd   strlen
00014f25   ti_ndk_config_global_taskExitHook
00014f39   ti_sysbios_family_arm_m3_Hwi_Object__get__S
00014f4d   ti_sysbios_family_arm_m3_Hwi_switchFromBootStack__E
00014f4d   ti_sysbios_hal_Hwi_HwiProxy_switchFromBootStack__E
00014f61   ti_sysbios_heaps_HeapMem_Object__get__S
00014f75   ti_sysbios_knl_Swi_Object__get__S
00014f89   ti_sysbios_knl_Task_Object__first__S
00014f9d   ti_sysbios_knl_Task_Object__next__S
00014fb1   GPIOPinTypeEthernetLED
00014fc3   GPIOPinTypePWM
00014fd5   GPIOPinTypeUART
00014fe7   PWMGenPeriodGet
00014ff9   PWMOutputInvert
0001500b   PWMOutputState
0001501d   SockPrAttach
0001502f   SockSetOOBData
00015041   __TI_zero_init
00015053   inet_addr
00015065   _Dclass
00015077   ti_sysbios_hal_Hwi_Module_startup__E
00015089   ti_sysbios_knl_Semaphore_reset__E
0001509b   xdc_runtime_Startup_exec__I
000150ad   ti_catalog_arm_cortexm4_tiva_ce_Boot_init__I
000150bd   BindIF2IPHost
000150cd   BindIFNet2IPHost
000150dd   EMACFrameFilterSet
000150ed   ExecHRef
000150fd   NC_IPUpdate
0001510d   NIMUGetRsvdSizeInfo
0001511d   PWMGenPeriodSet
0001512d   PWM_Params_init
0001513d   strcpy
0001514d   ti_sysbios_BIOS_getCpuFreq__E
0001515d   ti_sysbios_BIOS_setThreadType__E
0001516d   ti_sysbios_BIOS_start__E
0001517d   ti_sysbios_family_arm_m3_TaskSupport_glue
0001518d   ti_sysbios_gates_GateMutex_Instance_finalize__E
0001519d   ti_sysbios_knl_Mailbox_Object__get__S
000151ad   ti_sysbios_knl_Semaphore_Instance_finalize__E
000151bd   ti_sysbios_knl_Swi_disable__E
000151cd   ti_sysbios_knl_Task_Object__get__S
000151dd   ti_sysbios_knl_Task_disable__E
000151ed   ti_sysbios_knl_Task_getIdleTask__E
000151fd   xdc_runtime_Gate_leaveSystem__E
0001520d   xdc_runtime_Memory_free__E
0001521d   xdc_runtime_SysMin_ready__E
0001521d   xdc_runtime_System_SupportProxy_ready__E
0001522d   xdc_runtime_System_vsnprintf__E
0001523d   xdc_runtime_Text_visitRope__I
0001524d   EMACSnow_emacioctl
0001525b   ExecLowResource
00015269   UARTCharGetNonBlocking
00015277   UARTCharPutNonBlocking
00015285   __TI_decompress_none
00015293   ti_sysbios_knl_Queue_empty__E
000152a1   BindGetFirst
000152ad   CfgSetDefault
000152b9   NDK_hookInit
000152c5   NIMUSetRsvdSizeInfo
000152d1   NotifyLowResource
000152dd   PBM_close
000152e9   PWMGenDisable
000152f5   PWMGenEnable
00015301   SemDelete
0001530d   _llTimerShutdown
00015325   llTimerGetStartTime
00015331   ti_sysbios_BIOS_getThreadType__E
0001533d   ti_sysbios_family_arm_lm4_Timer_getMaxTicks__E
00015349   ti_sysbios_family_arm_m3_Hwi_Params__init__S
00015355   OEMSysCritOn
00015355   ti_sysbios_family_arm_m3_Hwi_disableFxn__E
00015355   ti_sysbios_hal_Hwi_HwiProxy_disable__E
00015355   ti_sysbios_hal_Hwi_disable__E
00015361   ti_sysbios_family_arm_m3_TaskSupport_checkStack__E
00015361   ti_sysbios_knl_Task_SupportProxy_checkStack__E
0001536d   ti_sysbios_family_arm_m3_TaskSupport_getStackAlignment__E
0001536d   ti_sysbios_knl_Task_SupportProxy_getStackAlignment__E
00015379   ti_sysbios_gates_GateHwi_enter__E
00015385   ti_sysbios_knl_Clock_Params__init__S
00015391   ti_sysbios_knl_Clock_getTicks__E
0001539d   ti_sysbios_knl_Queue_Object__get__S
000153a9   ti_sysbios_knl_Semaphore_Params__init__S
000153b5   ti_sysbios_knl_Task_Params__init__S
000153c1   ti_sysbios_knl_Task_self__E
000153cd   xdc_runtime_Error_init__E
000153d9   xdc_runtime_Gate_enterSystem__E
000153e5   xdc_runtime_Memory_calloc__E
000153f1   xdc_runtime_Memory_getMaxDefaultTypeAlign__E
000153fd   UARTCharGet
00015407   UARTCharPut
00015411   UARTIntDisable
0001541b   UARTIntStatus
00015425   fdint_signalevent
0001542f   fdint_signaltimeout
0001544d   EMACTxDMAPollDemand
0001545d   TaskBlock
00015465   UARTIntEnable
0001546d   UARTTiva_init
0001547d   ti_sysbios_family_arm_lm4_Timer_masterDisable__I
00015485   ti_sysbios_family_arm_m3_Hwi_doSwiRestore__I
0001548d   ti_sysbios_family_arm_m3_Hwi_startup__E
0001548d   ti_sysbios_hal_Hwi_HwiProxy_startup__E
0001548d   ti_sysbios_hal_Hwi_startup__E
00015495   ti_sysbios_knl_Idle_loop__E
0001549d   ti_sysbios_knl_Task_getHookContext__E
000154a5   ti_sysbios_knl_Task_setHookContext__E
000154b5   EMACRxDMADescriptorListSet
000154bb   EMACTxDMADescriptorListSet
000154c1   SysCtlDelay
000154c7   TcpPrRecv
000154cd   UARTFIFOLevelSet
000154d3   UARTTiva_control
000154d9   __xdc__init
000154df   __TI_decompress_rle24
000154e5   OEMSysCritOff
000154e5   ti_sysbios_family_arm_m3_Hwi_restoreFxn__E
000154e5   ti_sysbios_hal_Hwi_HwiProxy_restore__E
000154e5   ti_sysbios_hal_Hwi_restore__E
000154eb   ti_sysbios_gates_GateHwi_leave__E
000154f1   ti_sysbios_heaps_HeapMem_isBlocking__E
000154f7   ti_sysbios_knl_Queue_Instance_init__E
000154fd   xdc_runtime_System_Module_startup__E
00015503   BindGetIF
00015507   BindGetNext
0001550b   NDK_vsprintf
0001550f   NodeSetRt
00015513   RawEthSockPrAttach
00015517   RawEthSockPrDetach
0001551b   SemPend
0001551f   SemPost
00015523   SemReset
00015527   TaskSelf
0001552b   TaskSetPri
0001552f   UARTIntClear
00015533   _llSerialInit
00015537   list_get_head
0001553b   list_get_next
0001553f   ti_sysbios_BIOS_RtsGateProxy_enter__E
00015543   ti_sysbios_BIOS_RtsGateProxy_leave__E
00015547   ti_sysbios_family_arm_lm4_Timer_masterEnable__I
0001554b   ti_sysbios_family_arm_m3_Hwi_delete
0001554f   ti_sysbios_family_arm_m3_Hwi_destruct
00015553   ti_sysbios_family_arm_m3_TaskSupport_Module__startupDone__S
00015557   ti_sysbios_gates_GateHwi_query__E
00015557   xdc_runtime_Main_Module_GateProxy_query__E
00015557   xdc_runtime_System_Module_GateProxy_query__E
0001555b   ti_sysbios_BIOS_RtsGateProxy_query__E
0001555b   ti_sysbios_gates_GateMutex_query__E
0001555b   ti_sysbios_heaps_HeapMem_Module_GateProxy_query__E
0001555f   ti_sysbios_hal_Hwi_HwiProxy_Module__startupDone__S
00015563   ti_sysbios_heaps_HeapMem_Module_GateProxy_enter__E
00015567   ti_sysbios_heaps_HeapMem_Module_GateProxy_leave__E
0001556b   ti_sysbios_knl_Clock_TimerProxy_Module__startupDone__S
0001556f   ti_sysbios_knl_Clock_TimerProxy_getMaxTicks__E
00015573   ti_sysbios_knl_Queue_destruct
00015577   ti_sysbios_knl_Semaphore_delete
0001557b   ti_sysbios_knl_Semaphore_destruct
0001557f   ti_sysbios_knl_Swi_delete
00015583   ti_sysbios_knl_Task_SupportProxy_Module__startupDone__S
00015587   ti_sysbios_knl_Task_delete
0001558b   ti_sysbios_knl_Task_startup__E
0001558f   xdc_runtime_Error_getMsg__E
00015593   xdc_runtime_Error_getSite__E
00015597   xdc_runtime_Memory_HeapProxy_alloc__E
0001559b   xdc_runtime_Memory_HeapProxy_free__E
0001559f   xdc_runtime_System_Module_GateProxy_enter__E
000155a3   xdc_runtime_System_Module_GateProxy_leave__E
000155a7   xdc_runtime_System_aprintf_va__F
000155ab   xdc_runtime_System_printf_va__F
000155b0   xdc_runtime_Text_charTab__A
00016db5   xdc_runtime_Error_policy__C
00016db6   ti_catalog_arm_cortexm4_tiva_ce_Boot_Module__id__C
00016ed8   _ctypes_
00016fda   ti_sysbios_family_arm_m3_Hwi_Module__id__C
000170d0   xdc_runtime_Text_nodeTab__A
00017238   gpioHWAttrs
000172b0   UART_config
00017388   PWM_config
000173e8   Code2Err
0001743c   pwmTivaHWAttrs
00017490   uartTivaHWAttrs
0001750e   ti_sysbios_family_arm_m3_Hwi_Module__loggerDefined__C
00017510   ti_sysbios_knl_Task_Object__PARAMS__C
0001757c   ti_sysbios_family_arm_m3_Hwi_Object__PARAMS__C
000175ac   GPIO_config
00017604   UARTTiva_fxnTable
0001762c   ti_sysbios_heaps_HeapMem_Module__FXNS__C
00017654   ti_sysbios_knl_Swi_Object__PARAMS__C
0001767c   UART_defaultParams
000176a0   ti_sysbios_gates_GateHwi_Module__FXNS__C
000176c4   ti_sysbios_gates_GateMutex_Module__FXNS__C
000176e8   ti_sysbios_heaps_HeapMem_Object__PARAMS__C
0001770c   ti_sysbios_knl_Clock_Object__PARAMS__C
00017730   ti_sysbios_knl_Semaphore_Object__PARAMS__C
00017754   xdc_runtime_Startup_sfxnTab__A
00017778   PWMTiva_fxnTable
00017794   PWMTiva_MAX_PRESCALAR
00017796   PWMTiva_MAX_MATCH_VALUE
00017798   ti_sysbios_family_arm_m3_Hwi_Object__DESC__C
000177b8   ti_sysbios_gates_GateHwi_Object__DESC__C
000177d8   ti_sysbios_gates_GateMutex_Object__DESC__C
000177f8   ti_sysbios_heaps_HeapMem_Object__DESC__C
00017818   ti_sysbios_knl_Clock_Object__DESC__C
00017838   ti_sysbios_knl_Queue_Object__DESC__C
00017858   ti_sysbios_knl_Semaphore_Object__DESC__C
00017878   ti_sysbios_knl_Swi_Object__DESC__C
00017898   ti_sysbios_knl_Task_Object__DESC__C
000178b8   ti_ndk_config_Global_rawPageSize
000178bc   ti_ndk_config_Global_rawPageCount
000178c0   ti_ndk_config_Global_smallest
000178c4   ti_ndk_config_Global_largest
000178c8   ti_ndk_config_Global_numFrameBuf
000178cc   ti_ndk_config_Global_sizeFrameBuf
000178d0   roveDeviceTemplateThreadTask
000178d4   EMAC_config
00017904   ti_sysbios_gates_GateHwi_Object__PARAMS__C
0001791c   ti_sysbios_gates_GateMutex_Object__PARAMS__C
00017934   ti_sysbios_knl_Queue_Object__PARAMS__C
0001794c   ti_sysbios_knl_Task_hooks__A
00017964   xdc_runtime_Startup_firstFxns__A
00017978   xdc_runtime_Startup_sfxnRts__A
0001799c   PWM_defaultParams
000179a8   emacHWAttrs
000179bc   EMACSnow_fxnTable
000179c4   ti_sysbios_family_arm_m3_Hwi_excHookFuncs__A
000179cc   ti_sysbios_knl_Idle_funcList__A
000179d4   ti_sysbios_knl_Idle_funcList__C
000179dc   ti_sysbios_knl_Task_hooks__C
000179e4   xdc_runtime_Startup_firstFxns__C
000179ec   xdc_runtime_Startup_lastFxns__C
000179f4   ti_catalog_arm_cortexm4_tiva_ce_Boot_A_mustNotUseEnhancedClockMode__C
000179f8   ti_catalog_arm_cortexm4_tiva_ce_Boot_Module__diagsEnabled__C
000179fc   ti_catalog_arm_cortexm4_tiva_ce_Boot_Module__diagsIncluded__C
00017a00   ti_catalog_arm_cortexm4_tiva_ce_Boot_Module__diagsMask__C
00017a04   ti_sysbios_family_arm_lm4_Timer_enableFunc__C
00017a08   ti_sysbios_family_arm_lm4_Timer_numTimerDevices__C
00017a0c   ti_sysbios_family_arm_lm4_Timer_startupNeeded__C
00017a10   ti_sysbios_family_arm_m3_Hwi_E_NMI__C
00017a14   ti_sysbios_family_arm_m3_Hwi_E_alreadyDefined__C
00017a18   ti_sysbios_family_arm_m3_Hwi_E_busFault__C
00017a1c   ti_sysbios_family_arm_m3_Hwi_E_debugMon__C
00017a20   ti_sysbios_family_arm_m3_Hwi_E_hardFault__C
00017a24   ti_sysbios_family_arm_m3_Hwi_E_memFault__C
00017a28   ti_sysbios_family_arm_m3_Hwi_E_noIsr__C
00017a2c   ti_sysbios_family_arm_m3_Hwi_E_reserved__C
00017a30   ti_sysbios_family_arm_m3_Hwi_E_svCall__C
00017a34   ti_sysbios_family_arm_m3_Hwi_E_usageFault__C
00017a38   ti_sysbios_family_arm_m3_Hwi_LD_end__C
00017a3c   ti_sysbios_family_arm_m3_Hwi_LM_begin__C
00017a40   ti_sysbios_family_arm_m3_Hwi_Module__diagsEnabled__C
00017a44   ti_sysbios_family_arm_m3_Hwi_Module__diagsIncluded__C
00017a48   ti_sysbios_family_arm_m3_Hwi_Module__diagsMask__C
00017a4c   ti_sysbios_family_arm_m3_Hwi_Module__loggerFxn1__C
00017a50   ti_sysbios_family_arm_m3_Hwi_Module__loggerFxn8__C
00017a54   ti_sysbios_family_arm_m3_Hwi_Module__loggerObj__C
00017a58   ti_sysbios_family_arm_m3_Hwi_NUM_INTERRUPTS__C
00017a5c   ti_sysbios_family_arm_m3_Hwi_Object__count__C
00017a60   ti_sysbios_family_arm_m3_Hwi_ccr__C
00017a64   ti_sysbios_family_arm_m3_Hwi_excHandlerFunc__C
00017a68   ti_sysbios_family_arm_m3_Hwi_excHookFuncs__C
00017a6c   ti_sysbios_family_arm_m3_Hwi_nullIsrFunc__C
00017a70   ti_sysbios_family_arm_m3_Hwi_priGroup__C
00017a74   ti_sysbios_family_arm_m3_TaskSupport_stackAlignment__C
00017a78   ti_sysbios_gates_GateMutex_A_badContext__C
00017a7c   ti_sysbios_gates_GateMutex_Instance_State_sem__O
00017a80   ti_sysbios_gates_GateMutex_Module__diagsEnabled__C
00017a84   ti_sysbios_gates_GateMutex_Module__diagsIncluded__C
00017a88   ti_sysbios_gates_GateMutex_Module__diagsMask__C
00017a8c   ti_sysbios_hal_Hwi_E_stackOverflow__C
00017a90   ti_sysbios_heaps_HeapMem_A_align__C
00017a94   ti_sysbios_heaps_HeapMem_A_heapSize__C
00017a98   ti_sysbios_heaps_HeapMem_A_invalidFree__C
00017a9c   ti_sysbios_heaps_HeapMem_A_zeroBlock__C
00017aa0   ti_sysbios_heaps_HeapMem_E_memory__C
00017aa4   ti_sysbios_heaps_HeapMem_Module__diagsEnabled__C
00017aa8   ti_sysbios_heaps_HeapMem_Module__diagsIncluded__C
00017aac   ti_sysbios_heaps_HeapMem_Module__diagsMask__C
00017ab0   ti_sysbios_heaps_HeapMem_Module__gateObj__C
00017ab4   ti_sysbios_heaps_HeapMem_Object__count__C
00017ab8   ti_sysbios_heaps_HeapMem_reqAlign__C
00017abc   ti_sysbios_knl_Clock_A_badThreadType__C
00017ac0   ti_sysbios_knl_Clock_LM_begin__C
00017ac4   ti_sysbios_knl_Clock_LM_tick__C
00017ac8   ti_sysbios_knl_Clock_LW_delayed__C
00017acc   ti_sysbios_knl_Clock_Module_State_clockQ__O
00017ad0   ti_sysbios_knl_Clock_Module__diagsEnabled__C
00017ad4   ti_sysbios_knl_Clock_Module__diagsIncluded__C
00017ad8   ti_sysbios_knl_Clock_Module__diagsMask__C
00017adc   ti_sysbios_knl_Clock_Module__loggerFxn1__C
00017ae0   ti_sysbios_knl_Clock_Module__loggerFxn2__C
00017ae4   ti_sysbios_knl_Clock_Module__loggerObj__C
00017ae8   ti_sysbios_knl_Mailbox_Instance_State_freeQue__O
00017aec   ti_sysbios_knl_Mailbox_Object__count__C
00017af0   ti_sysbios_knl_Mailbox_maxTypeAlign__C
00017af4   ti_sysbios_knl_Semaphore_A_badContext__C
00017af8   ti_sysbios_knl_Semaphore_A_noEvents__C
00017afc   ti_sysbios_knl_Semaphore_A_overflow__C
00017b00   ti_sysbios_knl_Semaphore_A_pendTaskDisabled__C
00017b04   ti_sysbios_knl_Semaphore_Instance_State_pendQ__O
00017b08   ti_sysbios_knl_Semaphore_LM_pend__C
00017b0c   ti_sysbios_knl_Semaphore_LM_post__C
00017b10   ti_sysbios_knl_Semaphore_Module__diagsEnabled__C
00017b14   ti_sysbios_knl_Semaphore_Module__diagsIncluded__C
00017b18   ti_sysbios_knl_Semaphore_Module__diagsMask__C
00017b1c   ti_sysbios_knl_Semaphore_Module__loggerFxn2__C
00017b20   ti_sysbios_knl_Semaphore_Module__loggerFxn4__C
00017b24   ti_sysbios_knl_Semaphore_Module__loggerObj__C
00017b28   ti_sysbios_knl_Swi_A_badPriority__C
00017b2c   ti_sysbios_knl_Swi_LD_end__C
00017b30   ti_sysbios_knl_Swi_LM_begin__C
00017b34   ti_sysbios_knl_Swi_LM_post__C
00017b38   ti_sysbios_knl_Swi_Module__diagsEnabled__C
00017b3c   ti_sysbios_knl_Swi_Module__diagsIncluded__C
00017b40   ti_sysbios_knl_Swi_Module__diagsMask__C
00017b44   ti_sysbios_knl_Swi_Module__loggerFxn1__C
00017b48   ti_sysbios_knl_Swi_Module__loggerFxn4__C
00017b4c   ti_sysbios_knl_Swi_Module__loggerObj__C
00017b50   ti_sysbios_knl_Swi_Object__count__C
00017b54   ti_sysbios_knl_Task_A_badPriority__C
00017b58   ti_sysbios_knl_Task_A_badTaskState__C
00017b5c   ti_sysbios_knl_Task_A_badThreadType__C
00017b60   ti_sysbios_knl_Task_A_badTimeout__C
00017b64   ti_sysbios_knl_Task_A_noPendElem__C
00017b68   ti_sysbios_knl_Task_A_sleepTaskDisabled__C
00017b6c   ti_sysbios_knl_Task_E_deleteNotAllowed__C
00017b70   ti_sysbios_knl_Task_E_spOutOfBounds__C
00017b74   ti_sysbios_knl_Task_E_stackOverflow__C
00017b78   ti_sysbios_knl_Task_LD_block__C
00017b7c   ti_sysbios_knl_Task_LD_exit__C
00017b80   ti_sysbios_knl_Task_LD_ready__C
00017b84   ti_sysbios_knl_Task_LM_setPri__C
00017b88   ti_sysbios_knl_Task_LM_sleep__C
00017b8c   ti_sysbios_knl_Task_LM_switch__C
00017b90   ti_sysbios_knl_Task_Module_State_inactiveQ__O
00017b94   ti_sysbios_knl_Task_Module_State_terminatedQ__O
00017b98   ti_sysbios_knl_Task_Module__diagsEnabled__C
00017b9c   ti_sysbios_knl_Task_Module__diagsIncluded__C
00017ba0   ti_sysbios_knl_Task_Module__diagsMask__C
00017ba4   ti_sysbios_knl_Task_Module__loggerFxn2__C
00017ba8   ti_sysbios_knl_Task_Module__loggerFxn4__C
00017bac   ti_sysbios_knl_Task_Module__loggerObj__C
00017bb0   ti_sysbios_knl_Task_Object__count__C
00017bb4   ti_sysbios_knl_Task_Object__heap__C
00017bb8   ti_sysbios_knl_Task_allBlockedFunc__C
00017bbc   ti_sysbios_knl_Task_defaultStackHeap__C
00017bc0   ti_sysbios_knl_Task_defaultStackSize__C
00017bc4   ti_sysbios_knl_Task_numConstructedTasks__C
00017bc8   xdc_runtime_Assert_E_assertFailed__C
00017bcc   xdc_runtime_Core_A_initializedParams__C
00017bd0   xdc_runtime_Core_Module__diagsEnabled__C
00017bd4   xdc_runtime_Core_Module__diagsIncluded__C
00017bd8   xdc_runtime_Core_Module__diagsMask__C
00017bdc   xdc_runtime_Error_E_memory__C
00017be0   xdc_runtime_Error_Module__diagsEnabled__C
00017be4   xdc_runtime_Error_Module__diagsIncluded__C
00017be8   xdc_runtime_Error_Module__diagsMask__C
00017bec   xdc_runtime_Error_Module__loggerFxn8__C
00017bf0   xdc_runtime_Error_Module__loggerObj__C
00017bf4   xdc_runtime_Error_policyFxn__C
00017bf8   xdc_runtime_Error_raiseHook__C
00017bfc   xdc_runtime_IGateProvider_Interface__BASE__C
00017c00   xdc_runtime_IHeap_Interface__BASE__C
00017c04   xdc_runtime_IModule_Interface__BASE__C
00017c08   xdc_runtime_Log_L_error__C
00017c0c   xdc_runtime_Memory_defaultHeapInstance__C
00017c10   xdc_runtime_Startup_execImpl__C
00017c14   xdc_runtime_Startup_maxPasses__C
00017c18   xdc_runtime_Startup_sfxnRts__C
00017c1c   xdc_runtime_Startup_sfxnTab__C
00017c20   xdc_runtime_SysMin_bufSize__C
00017c24   xdc_runtime_SysMin_outputFunc__C
00017c28   xdc_runtime_System_Module__gateObj__C
00017c2c   xdc_runtime_System_abortFxn__C
00017c30   xdc_runtime_System_exitFxn__C
00017c34   xdc_runtime_System_extendFxn__C
00017c38   xdc_runtime_System_maxAtexitHandlers__C
00017c3c   xdc_runtime_Text_charTab__C
00017c40   xdc_runtime_Text_nameEmpty__C
00017c44   xdc_runtime_Text_nameStatic__C
00017c48   xdc_runtime_Text_nameUnknown__C
00017c4c   xdc_runtime_Text_nodeTab__C
00017c50   xdc_runtime_Text_visitRopeFxn__C
00017c54   ti_sysbios_gates_GateMutex_Module__id__C
00017c56   ti_sysbios_hal_Hwi_Module__id__C
00017c58   ti_sysbios_heaps_HeapMem_Module__id__C
00017c5a   ti_sysbios_knl_Clock_Module__id__C
00017c5c   ti_sysbios_knl_Clock_Module__loggerDefined__C
00017c5e   ti_sysbios_knl_Semaphore_Module__id__C
00017c60   ti_sysbios_knl_Semaphore_Module__loggerDefined__C
00017c62   ti_sysbios_knl_Swi_Module__id__C
00017c64   ti_sysbios_knl_Swi_Module__loggerDefined__C
00017c66   ti_sysbios_knl_Task_Module__id__C
00017c68   ti_sysbios_knl_Task_Module__loggerDefined__C
00017c6a   ti_sysbios_knl_Task_initStackFlag__C
00017c6c   xdc_runtime_Core_Module__id__C
00017c6e   xdc_runtime_Error_Module__loggerDefined__C
00017c70   xdc_runtime_Error_maxDepth__C
00017c72   xdc_runtime_Memory_Module__id__C
00017c74   xdc_runtime_SysMin_flushAtExit__C
00017c76   xdc_runtime_Text_charCnt__C
00017c78   xdc_runtime_Text_isLoaded__C
00017c7a   xdc_runtime_Text_registryModsLastId__C
00017c7c   xdc_runtime_Text_unnamedModsLastId__C
000182d8   __TI_Handler_Table_Base
000182e4   __TI_Handler_Table_Limit
000182f8   __TI_CINIT_Base
00018310   __TI_CINIT_Limit
20000000   ti_sysbios_family_arm_m3_Hwi_ramVectors
20000380   ti_sysbios_heaps_HeapMem_Instance_State_0_buf__A
20005380   ti_ndk_config_Global_pit
20005428   ti_ndk_config_Global_pitBuffer
20009c28   _ICMPIn
20009c74   PBMQ_free
20009c80   ti_ndk_config_Global_pBufMem
2000d880   ti_ndk_config_Global_pHdrMem
2000db78   ti_sysbios_knl_Task_Instance_State_0_stack__A
2000e378   ti_sysbios_knl_Task_Instance_State_1_stack__A
2000e978   ti_sysbios_knl_Task_Instance_State_2_stack__A
2000ec78   uartTivaObjects
2000f0b8   ti_sysbios_family_arm_m3_Hwi_dispatchTable
2000f418   __CIOBUF_
2000f638   tcps
2000f7a4   __TI_tmpnams
2000f964   xdc_runtime_SysMin_Module_State_0_outbuf__A
2000f9e4   ips
2000fa4c   nimu_mcb
2000faac   _ICMPOut
2000fb38   pwmTivaObjects
2000fb70   vlan_mcb
2000fbbc   udps
2000fbe0   BlockCount
2000fbfc   BlockMax
2000fc18   PageCount
2000fc34   PageMax
2000fc50   stkEvent
2000fc8c   raweths
2000fc9c   raws
2000fcac   tpseudo
2000fcb8   upseudo
2000fcc4   emacObjects
2000fcf8   _IGMPInDiscard
2000fcfc   _IGMPInQuery
2000fd00   _IGMPInQueryGroup
2000fd04   _IGMPInResponse
2000fd08   _IGMPOutResponse
2000fd0c   g_ulStatus
2000fd1c   pwm_1
2000fd20   pwm_2
2000fd24   pwm_3
2000fd28   pwm_4
2000fd2c   pwm_5
2000fd30   pwm_6
2000fd34   raweth_pcb
2000fd38   ti_sysbios_knl_Task_Instance_State_0_hookEnv__A
2000fd3c   ti_sysbios_knl_Task_Instance_State_1_hookEnv__A
2000fd40   ti_sysbios_knl_Task_Instance_State_2_hookEnv__A
2000fd44   uart_2
2000fd48   uart_3
2000fd4c   uart_4
2000fd50   uart_5
2000fd54   uart_6
2000fd58   uart_7
2000fd5c   ti_ndk_config_Global_Id2Size
2000fd78   ti_ndk_config_Global_HostName
2000fd7c   LocalIPAddr
2000fd80   LocalIPMask
2000fd84   GatewayIP
2000fd88   DomainName
2000fdcc   ti_sysbios_family_arm_lm4_Timer_Module__root__V
2000fdd4   ti_sysbios_family_arm_lm4_Timer_Module_State_0_handles__A
2000fdf4   ti_sysbios_family_arm_lm4_Timer_Module__state__V
2000fe00   ti_sysbios_family_arm_m3_Hwi_Module__root__V
2000fe08   ti_sysbios_family_arm_m3_Hwi_Object__table__V
2000fe20   ti_sysbios_family_arm_m3_Hwi_Module_State_0_excActive__A
2000fe24   ti_sysbios_family_arm_m3_Hwi_Module_State_0_excContext__A
2000fe28   ti_sysbios_family_arm_m3_Hwi_Module_State_0_excStack__A
2000fe2c   ti_sysbios_gates_GateHwi_Module__root__V
2000fe34   ti_sysbios_gates_GateHwi_Object__table__V
2000fe38   ti_sysbios_gates_GateMutex_Module__root__V
2000fe40   ti_sysbios_hal_Hwi_Module__root__V
2000fe48   ti_sysbios_heaps_HeapMem_Module__root__V
2000fe50   ti_sysbios_heaps_HeapMem_Object__table__V
2000fe68   ti_sysbios_knl_Clock_Module__root__V
2000fe70   ti_sysbios_knl_Event_Module__root__V
2000fe78   ti_sysbios_knl_Mailbox_Module__root__V
2000fe80   ti_sysbios_knl_Queue_Module__root__V
2000fe88   ti_sysbios_knl_Semaphore_Module__root__V
2000fe90   ti_sysbios_knl_Swi_Module__root__V
2000fe98   ti_sysbios_knl_Swi_Module__state__V
2000feb4   ti_sysbios_knl_Task_Module__root__V
2000febc   ti_sysbios_knl_Task_Module_State_0_idleTask__A
2000fec0   xdc_runtime_Error_Module__state__V
2000fec4   xdc_runtime_Memory_Module__state__V
2000fec8   xdc_runtime_Registry_Module__state__V
2000fed0   xdc_runtime_Startup_Module__state__V
2000fed8   xdc_runtime_SysMin_Module__state__V
2000fee4   xdc_runtime_System_Module_State_0_atexitHandlers__A
2000ff04   xdc_runtime_System_Module__state__V
2000ff0c   xdc_runtime_Text_Module__state__V
2000ff14   __xdc__init__addr
2000ff18   _ftable
20010008   ti_sysbios_knl_Task_Object__table__V
200100a0   TSK_idle
200101bc   _ipcfg
20010270   ti_sysbios_knl_Swi_Module_State_0_readyQ__A
200102f0   ti_sysbios_knl_Task_Module_State_0_readyQ__A
200103c0   ti_sysbios_knl_Task_Module__state__V
20010484   ti_sysbios_family_arm_lm4_Timer_Module_State_0_device__A
200104c4   ti_sysbios_family_arm_lm4_Timer_Object__table__V
20010504   ti_sysbios_gates_GateMutex_Object__table__V
20010570   ti_sysbios_family_arm_m3_Hwi_Module__state__V
200105a4   enablePrefetch
200105a8   phyCounter
20010608   ti_sysbios_knl_Swi_Object__table__V
20010638   ti_sysbios_knl_Clock_Module__state__V
20010664   pstrMsgName
2001068c   _oscfg
200106b0   PITCount
200106b4   PITUsed
200106b8   PITHigh
200106d4   ti_sysbios_BIOS_Module__state__V
20010770   __TI_ft_end
20010774   __aeabi_stdin
20010778   __aeabi_stdout
2001077c   __aeabi_stderr
20010788   _IGMPForceVersion1
2001079e   macAddress
200107a4   NIMUDeviceTable
200107bc   _lock
200107c0   _unlock
200107c4   __TI_cleanup_ptr
200107c8   __TI_dtors_ptr
200107d4   _ICMPInErrors
200107d8   _ICMPOutErrors
200107dc   _IPExecuting
200107f4   tcp_iss
200107f8   ptTimeFirst
20010824   main_func_sp
2001082c   _IPReasmPtr
2001083c   __stack
20010a3c   __STACK_TOP
2001103c   __STACK_END
e000e000   ti_sysbios_family_arm_m3_Hwi_nvic
ffffffff   __binit__
ffffffff   __c_args__
ffffffff   binit
UNDEFED    SHT$$INIT_ARRAY$$Base
UNDEFED    SHT$$INIT_ARRAY$$Limit

[1182 symbols]
